ARM GAS  C:\Users\ADMINI~1\AppData\Local\Temp\ccOsP4Jx.s 			page 1


   1              		.cpu cortex-m3
   2              		.arch armv7-m
   3              		.fpu softvfp
   4              		.eabi_attribute 20, 1
   5              		.eabi_attribute 21, 1
   6              		.eabi_attribute 23, 3
   7              		.eabi_attribute 24, 1
   8              		.eabi_attribute 25, 1
   9              		.eabi_attribute 26, 1
  10              		.eabi_attribute 30, 1
  11              		.eabi_attribute 34, 1
  12              		.eabi_attribute 18, 4
  13              		.file	"device_system.c"
  14              		.text
  15              	.Ltext0:
  16              		.cfi_sections	.debug_frame
  17              		.section	.text.LedDeviceControl,"ax",%progbits
  18              		.align	1
  19              		.syntax unified
  20              		.thumb
  21              		.thumb_func
  23              	LedDeviceControl:
  24              	.LVL0:
  25              	.LFB69:
  26              		.file 1 "App/SmartDevice/SubSystems/Devices/device_system.c"
   1:App/SmartDevice/SubSystems/Devices/device_system.c **** #include "device_system.h"
   2:App/SmartDevice/SubSystems/Devices/device_system.c **** 
   3:App/SmartDevice/SubSystems/Devices/device_system.c **** static int LedDeviceInit(LedDevice *pLedDevice)
   4:App/SmartDevice/SubSystems/Devices/device_system.c **** {
   5:App/SmartDevice/SubSystems/Devices/device_system.c ****     return KAL_LedDeviceInit(pLedDevice);
   6:App/SmartDevice/SubSystems/Devices/device_system.c **** }
   7:App/SmartDevice/SubSystems/Devices/device_system.c **** 
   8:App/SmartDevice/SubSystems/Devices/device_system.c **** static int LedDeviceControl(LedDevice *pLedDevice, int iStatus)
   9:App/SmartDevice/SubSystems/Devices/device_system.c **** {
  27              		.loc 1 9 1 view -0
  28              		.cfi_startproc
  29              		@ args = 0, pretend = 0, frame = 0
  30              		@ frame_needed = 0, uses_anonymous_args = 0
  31              		.loc 1 9 1 is_stmt 0 view .LVU1
  32 0000 08B5     		push	{r3, lr}
  33              	.LCFI0:
  34              		.cfi_def_cfa_offset 8
  35              		.cfi_offset 3, -8
  36              		.cfi_offset 14, -4
  10:App/SmartDevice/SubSystems/Devices/device_system.c ****     return KAL_LedDeviceControl(pLedDevice, iStatus);
  37              		.loc 1 10 5 is_stmt 1 view .LVU2
  38              		.loc 1 10 12 is_stmt 0 view .LVU3
  39 0002 FFF7FEFF 		bl	KAL_LedDeviceControl
  40              	.LVL1:
  11:App/SmartDevice/SubSystems/Devices/device_system.c **** }
  41              		.loc 1 11 1 view .LVU4
  42 0006 08BD     		pop	{r3, pc}
  43              		.cfi_endproc
  44              	.LFE69:
  46              		.section	.text.LedDeviceInit,"ax",%progbits
  47              		.align	1
  48              		.syntax unified
ARM GAS  C:\Users\ADMINI~1\AppData\Local\Temp\ccOsP4Jx.s 			page 2


  49              		.thumb
  50              		.thumb_func
  52              	LedDeviceInit:
  53              	.LVL2:
  54              	.LFB68:
   4:App/SmartDevice/SubSystems/Devices/device_system.c ****     return KAL_LedDeviceInit(pLedDevice);
  55              		.loc 1 4 1 is_stmt 1 view -0
  56              		.cfi_startproc
  57              		@ args = 0, pretend = 0, frame = 0
  58              		@ frame_needed = 0, uses_anonymous_args = 0
   4:App/SmartDevice/SubSystems/Devices/device_system.c ****     return KAL_LedDeviceInit(pLedDevice);
  59              		.loc 1 4 1 is_stmt 0 view .LVU6
  60 0000 08B5     		push	{r3, lr}
  61              	.LCFI1:
  62              		.cfi_def_cfa_offset 8
  63              		.cfi_offset 3, -8
  64              		.cfi_offset 14, -4
   5:App/SmartDevice/SubSystems/Devices/device_system.c **** }
  65              		.loc 1 5 5 is_stmt 1 view .LVU7
   5:App/SmartDevice/SubSystems/Devices/device_system.c **** }
  66              		.loc 1 5 12 is_stmt 0 view .LVU8
  67 0002 FFF7FEFF 		bl	KAL_LedDeviceInit
  68              	.LVL3:
   6:App/SmartDevice/SubSystems/Devices/device_system.c **** 
  69              		.loc 1 6 1 view .LVU9
  70 0006 08BD     		pop	{r3, pc}
  71              		.cfi_endproc
  72              	.LFE68:
  74              		.section	.text.GetLedDevice,"ax",%progbits
  75              		.align	1
  76              		.global	GetLedDevice
  77              		.syntax unified
  78              		.thumb
  79              		.thumb_func
  81              	GetLedDevice:
  82              	.LVL4:
  83              	.LFB70:
  12:App/SmartDevice/SubSystems/Devices/device_system.c **** 
  13:App/SmartDevice/SubSystems/Devices/device_system.c **** 
  14:App/SmartDevice/SubSystems/Devices/device_system.c **** /* 在内存中分配一块区域专门写数据，然后通过I2C将数据刷到LCD*/
  15:App/SmartDevice/SubSystems/Devices/device_system.c **** // static int DisplayDeviceInit(DisplayDevice *pDisplayDevice)
  16:App/SmartDevice/SubSystems/Devices/device_system.c **** // {
  17:App/SmartDevice/SubSystems/Devices/device_system.c **** //     return KAL_DisplayDeviceInit(pDisplayDevices);
  18:App/SmartDevice/SubSystems/Devices/device_system.c **** // }
  19:App/SmartDevice/SubSystems/Devices/device_system.c **** 
  20:App/SmartDevice/SubSystems/Devices/device_system.c **** // static int DisplayDeviceFlash(DisplayDevice *pDisplayDevice)
  21:App/SmartDevice/SubSystems/Devices/device_system.c **** // {
  22:App/SmartDevice/SubSystems/Devices/device_system.c **** //     return KAL_DisplayDeviceInit(pDisplayDevices);
  23:App/SmartDevice/SubSystems/Devices/device_system.c **** // }
  24:App/SmartDevice/SubSystems/Devices/device_system.c **** 
  25:App/SmartDevice/SubSystems/Devices/device_system.c **** static LedDevice g_ledDevices[]={
  26:App/SmartDevice/SubSystems/Devices/device_system.c ****     {
  27:App/SmartDevice/SubSystems/Devices/device_system.c ****        LED_WHITE, LedDeviceInit,LedDeviceControl,NULL
  28:App/SmartDevice/SubSystems/Devices/device_system.c ****     },
  29:App/SmartDevice/SubSystems/Devices/device_system.c ****     {
  30:App/SmartDevice/SubSystems/Devices/device_system.c ****        LED_BLUE, LedDeviceInit,LedDeviceControl,NULL
  31:App/SmartDevice/SubSystems/Devices/device_system.c ****     },
ARM GAS  C:\Users\ADMINI~1\AppData\Local\Temp\ccOsP4Jx.s 			page 3


  32:App/SmartDevice/SubSystems/Devices/device_system.c ****     {
  33:App/SmartDevice/SubSystems/Devices/device_system.c ****        LED_GREEN, LedDeviceInit,LedDeviceControl,NULL
  34:App/SmartDevice/SubSystems/Devices/device_system.c ****     },
  35:App/SmartDevice/SubSystems/Devices/device_system.c **** };
  36:App/SmartDevice/SubSystems/Devices/device_system.c **** 
  37:App/SmartDevice/SubSystems/Devices/device_system.c **** LedDevice* GetLedDevice(int which)
  38:App/SmartDevice/SubSystems/Devices/device_system.c **** {
  84              		.loc 1 38 1 is_stmt 1 view -0
  85              		.cfi_startproc
  86              		@ args = 0, pretend = 0, frame = 0
  87              		@ frame_needed = 0, uses_anonymous_args = 0
  88              		@ link register save eliminated.
  39:App/SmartDevice/SubSystems/Devices/device_system.c ****     if((which<LED_WHITE)&&(which>LED_GREEN))
  89              		.loc 1 39 5 view .LVU11
  40:App/SmartDevice/SubSystems/Devices/device_system.c ****         return (LedDevice*)NOT_FOUND;
  41:App/SmartDevice/SubSystems/Devices/device_system.c ****     
  42:App/SmartDevice/SubSystems/Devices/device_system.c ****     return &g_ledDevices[which];
  90              		.loc 1 42 5 view .LVU12
  43:App/SmartDevice/SubSystems/Devices/device_system.c **** }
  91              		.loc 1 43 1 is_stmt 0 view .LVU13
  92 0000 014B     		ldr	r3, .L6
  93 0002 03EB0010 		add	r0, r3, r0, lsl #4
  94              	.LVL5:
  95              		.loc 1 43 1 view .LVU14
  96 0006 7047     		bx	lr
  97              	.L7:
  98              		.align	2
  99              	.L6:
 100 0008 00000000 		.word	.LANCHOR0
 101              		.cfi_endproc
 102              	.LFE70:
 104              		.section	.data.g_ledDevices,"aw"
 105              		.align	2
 106              		.set	.LANCHOR0,. + 0
 109              	g_ledDevices:
 110 0000 00000000 		.word	0
 111 0004 00000000 		.word	LedDeviceInit
 112 0008 00000000 		.word	LedDeviceControl
 113 000c 00000000 		.word	0
 114 0010 01000000 		.word	1
 115 0014 00000000 		.word	LedDeviceInit
 116 0018 00000000 		.word	LedDeviceControl
 117 001c 00000000 		.word	0
 118 0020 02000000 		.word	2
 119 0024 00000000 		.word	LedDeviceInit
 120 0028 00000000 		.word	LedDeviceControl
 121 002c 00000000 		.word	0
 122              		.text
 123              	.Letext0:
 124              		.file 2 "App/SmartDevice/SubSystems/system_type.h"
 125              		.file 3 "App/SmartDevice/KAL/device_kal.h"
ARM GAS  C:\Users\ADMINI~1\AppData\Local\Temp\ccOsP4Jx.s 			page 4

