ARM GAS  C:\Users\ADMINI~1\AppData\Local\Temp\ccEijQpp.s 			page 1


   1              		.cpu cortex-m3
   2              		.arch armv7-m
   3              		.fpu softvfp
   4              		.eabi_attribute 20, 1
   5              		.eabi_attribute 21, 1
   6              		.eabi_attribute 23, 3
   7              		.eabi_attribute 24, 1
   8              		.eabi_attribute 25, 1
   9              		.eabi_attribute 26, 1
  10              		.eabi_attribute 30, 1
  11              		.eabi_attribute 34, 1
  12              		.eabi_attribute 18, 4
  13              		.file	"gpio.c"
  14              		.text
  15              	.Ltext0:
  16              		.cfi_sections	.debug_frame
  17              		.section	.text.MX_GPIO_Init,"ax",%progbits
  18              		.align	1
  19              		.global	MX_GPIO_Init
  20              		.syntax unified
  21              		.thumb
  22              		.thumb_func
  24              	MX_GPIO_Init:
  25              	.LFB65:
  26              		.file 1 "Core/Src/gpio.c"
   1:Core/Src/gpio.c **** /* USER CODE BEGIN Header */
   2:Core/Src/gpio.c **** /**
   3:Core/Src/gpio.c ****   ******************************************************************************
   4:Core/Src/gpio.c ****   * @file    gpio.c
   5:Core/Src/gpio.c ****   * @brief   This file provides code for the configuration
   6:Core/Src/gpio.c ****   *          of all used GPIO pins.
   7:Core/Src/gpio.c ****   ******************************************************************************
   8:Core/Src/gpio.c ****   * @attention
   9:Core/Src/gpio.c ****   *
  10:Core/Src/gpio.c ****   * Copyright (c) 2024 STMicroelectronics.
  11:Core/Src/gpio.c ****   * All rights reserved.
  12:Core/Src/gpio.c ****   *
  13:Core/Src/gpio.c ****   * This software is licensed under terms that can be found in the LICENSE file
  14:Core/Src/gpio.c ****   * in the root directory of this software component.
  15:Core/Src/gpio.c ****   * If no LICENSE file comes with this software, it is provided AS-IS.
  16:Core/Src/gpio.c ****   *
  17:Core/Src/gpio.c ****   ******************************************************************************
  18:Core/Src/gpio.c ****   */
  19:Core/Src/gpio.c **** /* USER CODE END Header */
  20:Core/Src/gpio.c **** 
  21:Core/Src/gpio.c **** /* Includes ------------------------------------------------------------------*/
  22:Core/Src/gpio.c **** #include "gpio.h"
  23:Core/Src/gpio.c **** 
  24:Core/Src/gpio.c **** /* USER CODE BEGIN 0 */
  25:Core/Src/gpio.c **** 
  26:Core/Src/gpio.c **** /* USER CODE END 0 */
  27:Core/Src/gpio.c **** 
  28:Core/Src/gpio.c **** /*----------------------------------------------------------------------------*/
  29:Core/Src/gpio.c **** /* Configure GPIO                                                             */
  30:Core/Src/gpio.c **** /*----------------------------------------------------------------------------*/
  31:Core/Src/gpio.c **** /* USER CODE BEGIN 1 */
  32:Core/Src/gpio.c **** 
ARM GAS  C:\Users\ADMINI~1\AppData\Local\Temp\ccEijQpp.s 			page 2


  33:Core/Src/gpio.c **** /* USER CODE END 1 */
  34:Core/Src/gpio.c **** 
  35:Core/Src/gpio.c **** /** Configure pins as
  36:Core/Src/gpio.c ****         * Analog
  37:Core/Src/gpio.c ****         * Input
  38:Core/Src/gpio.c ****         * Output
  39:Core/Src/gpio.c ****         * EVENT_OUT
  40:Core/Src/gpio.c ****         * EXTI
  41:Core/Src/gpio.c **** */
  42:Core/Src/gpio.c **** void MX_GPIO_Init(void)
  43:Core/Src/gpio.c **** {
  27              		.loc 1 43 1 view -0
  28              		.cfi_startproc
  29              		@ args = 0, pretend = 0, frame = 40
  30              		@ frame_needed = 0, uses_anonymous_args = 0
  31 0000 2DE9F047 		push	{r4, r5, r6, r7, r8, r9, r10, lr}
  32              	.LCFI0:
  33              		.cfi_def_cfa_offset 32
  34              		.cfi_offset 4, -32
  35              		.cfi_offset 5, -28
  36              		.cfi_offset 6, -24
  37              		.cfi_offset 7, -20
  38              		.cfi_offset 8, -16
  39              		.cfi_offset 9, -12
  40              		.cfi_offset 10, -8
  41              		.cfi_offset 14, -4
  42 0004 8AB0     		sub	sp, sp, #40
  43              	.LCFI1:
  44              		.cfi_def_cfa_offset 72
  44:Core/Src/gpio.c **** 
  45:Core/Src/gpio.c ****   GPIO_InitTypeDef GPIO_InitStruct = {0};
  45              		.loc 1 45 3 view .LVU1
  46              		.loc 1 45 20 is_stmt 0 view .LVU2
  47 0006 0025     		movs	r5, #0
  48 0008 0695     		str	r5, [sp, #24]
  49 000a 0795     		str	r5, [sp, #28]
  50 000c 0895     		str	r5, [sp, #32]
  51 000e 0995     		str	r5, [sp, #36]
  46:Core/Src/gpio.c **** 
  47:Core/Src/gpio.c ****   /* GPIO Ports Clock Enable */
  48:Core/Src/gpio.c ****   __HAL_RCC_GPIOE_CLK_ENABLE();
  52              		.loc 1 48 3 is_stmt 1 view .LVU3
  53              	.LBB2:
  54              		.loc 1 48 3 view .LVU4
  55              		.loc 1 48 3 view .LVU5
  56 0010 414B     		ldr	r3, .L3
  57 0012 9A69     		ldr	r2, [r3, #24]
  58 0014 42F04002 		orr	r2, r2, #64
  59 0018 9A61     		str	r2, [r3, #24]
  60              		.loc 1 48 3 view .LVU6
  61 001a 9A69     		ldr	r2, [r3, #24]
  62 001c 02F04002 		and	r2, r2, #64
  63 0020 0092     		str	r2, [sp]
  64              		.loc 1 48 3 view .LVU7
  65 0022 009A     		ldr	r2, [sp]
  66              	.LBE2:
  67              		.loc 1 48 3 view .LVU8
ARM GAS  C:\Users\ADMINI~1\AppData\Local\Temp\ccEijQpp.s 			page 3


  49:Core/Src/gpio.c ****   __HAL_RCC_GPIOC_CLK_ENABLE();
  68              		.loc 1 49 3 view .LVU9
  69              	.LBB3:
  70              		.loc 1 49 3 view .LVU10
  71              		.loc 1 49 3 view .LVU11
  72 0024 9A69     		ldr	r2, [r3, #24]
  73 0026 42F01002 		orr	r2, r2, #16
  74 002a 9A61     		str	r2, [r3, #24]
  75              		.loc 1 49 3 view .LVU12
  76 002c 9A69     		ldr	r2, [r3, #24]
  77 002e 02F01002 		and	r2, r2, #16
  78 0032 0192     		str	r2, [sp, #4]
  79              		.loc 1 49 3 view .LVU13
  80 0034 019A     		ldr	r2, [sp, #4]
  81              	.LBE3:
  82              		.loc 1 49 3 view .LVU14
  50:Core/Src/gpio.c ****   __HAL_RCC_GPIOF_CLK_ENABLE();
  83              		.loc 1 50 3 view .LVU15
  84              	.LBB4:
  85              		.loc 1 50 3 view .LVU16
  86              		.loc 1 50 3 view .LVU17
  87 0036 9A69     		ldr	r2, [r3, #24]
  88 0038 42F08002 		orr	r2, r2, #128
  89 003c 9A61     		str	r2, [r3, #24]
  90              		.loc 1 50 3 view .LVU18
  91 003e 9A69     		ldr	r2, [r3, #24]
  92 0040 02F08002 		and	r2, r2, #128
  93 0044 0292     		str	r2, [sp, #8]
  94              		.loc 1 50 3 view .LVU19
  95 0046 029A     		ldr	r2, [sp, #8]
  96              	.LBE4:
  97              		.loc 1 50 3 view .LVU20
  51:Core/Src/gpio.c ****   __HAL_RCC_GPIOD_CLK_ENABLE();
  98              		.loc 1 51 3 view .LVU21
  99              	.LBB5:
 100              		.loc 1 51 3 view .LVU22
 101              		.loc 1 51 3 view .LVU23
 102 0048 9A69     		ldr	r2, [r3, #24]
 103 004a 42F02002 		orr	r2, r2, #32
 104 004e 9A61     		str	r2, [r3, #24]
 105              		.loc 1 51 3 view .LVU24
 106 0050 9A69     		ldr	r2, [r3, #24]
 107 0052 02F02002 		and	r2, r2, #32
 108 0056 0392     		str	r2, [sp, #12]
 109              		.loc 1 51 3 view .LVU25
 110 0058 039A     		ldr	r2, [sp, #12]
 111              	.LBE5:
 112              		.loc 1 51 3 view .LVU26
  52:Core/Src/gpio.c ****   __HAL_RCC_GPIOA_CLK_ENABLE();
 113              		.loc 1 52 3 view .LVU27
 114              	.LBB6:
 115              		.loc 1 52 3 view .LVU28
 116              		.loc 1 52 3 view .LVU29
 117 005a 9A69     		ldr	r2, [r3, #24]
 118 005c 42F00402 		orr	r2, r2, #4
 119 0060 9A61     		str	r2, [r3, #24]
 120              		.loc 1 52 3 view .LVU30
ARM GAS  C:\Users\ADMINI~1\AppData\Local\Temp\ccEijQpp.s 			page 4


 121 0062 9A69     		ldr	r2, [r3, #24]
 122 0064 02F00402 		and	r2, r2, #4
 123 0068 0492     		str	r2, [sp, #16]
 124              		.loc 1 52 3 view .LVU31
 125 006a 049A     		ldr	r2, [sp, #16]
 126              	.LBE6:
 127              		.loc 1 52 3 view .LVU32
  53:Core/Src/gpio.c ****   __HAL_RCC_GPIOB_CLK_ENABLE();
 128              		.loc 1 53 3 view .LVU33
 129              	.LBB7:
 130              		.loc 1 53 3 view .LVU34
 131              		.loc 1 53 3 view .LVU35
 132 006c 9A69     		ldr	r2, [r3, #24]
 133 006e 42F00802 		orr	r2, r2, #8
 134 0072 9A61     		str	r2, [r3, #24]
 135              		.loc 1 53 3 view .LVU36
 136 0074 9B69     		ldr	r3, [r3, #24]
 137 0076 03F00803 		and	r3, r3, #8
 138 007a 0593     		str	r3, [sp, #20]
 139              		.loc 1 53 3 view .LVU37
 140 007c 059B     		ldr	r3, [sp, #20]
 141              	.LBE7:
 142              		.loc 1 53 3 view .LVU38
  54:Core/Src/gpio.c **** 
  55:Core/Src/gpio.c ****   /*Configure GPIO pin Output Level */
  56:Core/Src/gpio.c ****   HAL_GPIO_WritePin(INA_GPIO_Port, INA_Pin, GPIO_PIN_SET);
 143              		.loc 1 56 3 view .LVU39
 144 007e 274F     		ldr	r7, .L3+4
 145 0080 0122     		movs	r2, #1
 146 0082 4021     		movs	r1, #64
 147 0084 3846     		mov	r0, r7
 148 0086 FFF7FEFF 		bl	HAL_GPIO_WritePin
 149              	.LVL0:
  57:Core/Src/gpio.c **** 
  58:Core/Src/gpio.c ****   /*Configure GPIO pin Output Level */
  59:Core/Src/gpio.c ****   HAL_GPIO_WritePin(GPIOF, WHITE_Pin|BLUE_Pin|GREEN_Pin|SCL_Pin
 150              		.loc 1 59 3 view .LVU40
 151 008a DFF89480 		ldr	r8, .L3+8
 152 008e 0122     		movs	r2, #1
 153 0090 4FF47861 		mov	r1, #3968
 154 0094 4046     		mov	r0, r8
 155 0096 FFF7FEFF 		bl	HAL_GPIO_WritePin
 156              	.LVL1:
  60:Core/Src/gpio.c ****                           |SDA_Pin, GPIO_PIN_SET);
  61:Core/Src/gpio.c **** 
  62:Core/Src/gpio.c ****   /*Configure GPIO pin Output Level */
  63:Core/Src/gpio.c ****   HAL_GPIO_WritePin(INB_GPIO_Port, INB_Pin, GPIO_PIN_SET);
 157              		.loc 1 63 3 view .LVU41
 158 009a DFF88890 		ldr	r9, .L3+12
 159 009e 0122     		movs	r2, #1
 160 00a0 4021     		movs	r1, #64
 161 00a2 4846     		mov	r0, r9
 162 00a4 FFF7FEFF 		bl	HAL_GPIO_WritePin
 163              	.LVL2:
  64:Core/Src/gpio.c **** 
  65:Core/Src/gpio.c ****   /*Configure GPIO pin : PtPin */
  66:Core/Src/gpio.c ****   GPIO_InitStruct.Pin = INA_Pin;
ARM GAS  C:\Users\ADMINI~1\AppData\Local\Temp\ccEijQpp.s 			page 5


 164              		.loc 1 66 3 view .LVU42
 165              		.loc 1 66 23 is_stmt 0 view .LVU43
 166 00a8 4FF0400A 		mov	r10, #64
 167 00ac CDF818A0 		str	r10, [sp, #24]
  67:Core/Src/gpio.c ****   GPIO_InitStruct.Mode = GPIO_MODE_OUTPUT_PP;
 168              		.loc 1 67 3 is_stmt 1 view .LVU44
 169              		.loc 1 67 24 is_stmt 0 view .LVU45
 170 00b0 0124     		movs	r4, #1
 171 00b2 0794     		str	r4, [sp, #28]
  68:Core/Src/gpio.c ****   GPIO_InitStruct.Pull = GPIO_PULLUP;
 172              		.loc 1 68 3 is_stmt 1 view .LVU46
 173              		.loc 1 68 24 is_stmt 0 view .LVU47
 174 00b4 0894     		str	r4, [sp, #32]
  69:Core/Src/gpio.c ****   GPIO_InitStruct.Speed = GPIO_SPEED_FREQ_HIGH;
 175              		.loc 1 69 3 is_stmt 1 view .LVU48
 176              		.loc 1 69 25 is_stmt 0 view .LVU49
 177 00b6 0326     		movs	r6, #3
 178 00b8 0996     		str	r6, [sp, #36]
  70:Core/Src/gpio.c ****   HAL_GPIO_Init(INA_GPIO_Port, &GPIO_InitStruct);
 179              		.loc 1 70 3 is_stmt 1 view .LVU50
 180 00ba 06A9     		add	r1, sp, #24
 181 00bc 3846     		mov	r0, r7
 182 00be FFF7FEFF 		bl	HAL_GPIO_Init
 183              	.LVL3:
  71:Core/Src/gpio.c **** 
  72:Core/Src/gpio.c ****   /*Configure GPIO pins : PFPin PFPin PFPin */
  73:Core/Src/gpio.c ****   GPIO_InitStruct.Pin = WHITE_Pin|BLUE_Pin|GREEN_Pin;
 184              		.loc 1 73 3 view .LVU51
 185              		.loc 1 73 23 is_stmt 0 view .LVU52
 186 00c2 4FF46073 		mov	r3, #896
 187 00c6 0693     		str	r3, [sp, #24]
  74:Core/Src/gpio.c ****   GPIO_InitStruct.Mode = GPIO_MODE_OUTPUT_PP;
 188              		.loc 1 74 3 is_stmt 1 view .LVU53
 189              		.loc 1 74 24 is_stmt 0 view .LVU54
 190 00c8 0794     		str	r4, [sp, #28]
  75:Core/Src/gpio.c ****   GPIO_InitStruct.Pull = GPIO_PULLUP;
 191              		.loc 1 75 3 is_stmt 1 view .LVU55
 192              		.loc 1 75 24 is_stmt 0 view .LVU56
 193 00ca 0894     		str	r4, [sp, #32]
  76:Core/Src/gpio.c ****   GPIO_InitStruct.Speed = GPIO_SPEED_FREQ_HIGH;
 194              		.loc 1 76 3 is_stmt 1 view .LVU57
 195              		.loc 1 76 25 is_stmt 0 view .LVU58
 196 00cc 0996     		str	r6, [sp, #36]
  77:Core/Src/gpio.c ****   HAL_GPIO_Init(GPIOF, &GPIO_InitStruct);
 197              		.loc 1 77 3 is_stmt 1 view .LVU59
 198 00ce 06A9     		add	r1, sp, #24
 199 00d0 4046     		mov	r0, r8
 200 00d2 FFF7FEFF 		bl	HAL_GPIO_Init
 201              	.LVL4:
  78:Core/Src/gpio.c **** 
  79:Core/Src/gpio.c ****   /*Configure GPIO pins : PFPin PFPin */
  80:Core/Src/gpio.c ****   GPIO_InitStruct.Pin = SCL_Pin|SDA_Pin;
 202              		.loc 1 80 3 view .LVU60
 203              		.loc 1 80 23 is_stmt 0 view .LVU61
 204 00d6 4FF44063 		mov	r3, #3072
 205 00da 0693     		str	r3, [sp, #24]
  81:Core/Src/gpio.c ****   GPIO_InitStruct.Mode = GPIO_MODE_OUTPUT_OD;
ARM GAS  C:\Users\ADMINI~1\AppData\Local\Temp\ccEijQpp.s 			page 6


 206              		.loc 1 81 3 is_stmt 1 view .LVU62
 207              		.loc 1 81 24 is_stmt 0 view .LVU63
 208 00dc 1123     		movs	r3, #17
 209 00de 0793     		str	r3, [sp, #28]
  82:Core/Src/gpio.c ****   GPIO_InitStruct.Pull = GPIO_PULLUP;
 210              		.loc 1 82 3 is_stmt 1 view .LVU64
 211              		.loc 1 82 24 is_stmt 0 view .LVU65
 212 00e0 0894     		str	r4, [sp, #32]
  83:Core/Src/gpio.c ****   GPIO_InitStruct.Speed = GPIO_SPEED_FREQ_HIGH;
 213              		.loc 1 83 3 is_stmt 1 view .LVU66
 214              		.loc 1 83 25 is_stmt 0 view .LVU67
 215 00e2 0996     		str	r6, [sp, #36]
  84:Core/Src/gpio.c ****   HAL_GPIO_Init(GPIOF, &GPIO_InitStruct);
 216              		.loc 1 84 3 is_stmt 1 view .LVU68
 217 00e4 06A9     		add	r1, sp, #24
 218 00e6 4046     		mov	r0, r8
 219 00e8 FFF7FEFF 		bl	HAL_GPIO_Init
 220              	.LVL5:
  85:Core/Src/gpio.c **** 
  86:Core/Src/gpio.c ****   /*Configure GPIO pins : PEPin PEPin */
  87:Core/Src/gpio.c ****   GPIO_InitStruct.Pin = KEY1_Pin|KEY2_Pin;
 221              		.loc 1 87 3 view .LVU69
 222              		.loc 1 87 23 is_stmt 0 view .LVU70
 223 00ec 4FF44043 		mov	r3, #49152
 224 00f0 0693     		str	r3, [sp, #24]
  88:Core/Src/gpio.c ****   GPIO_InitStruct.Mode = GPIO_MODE_INPUT;
 225              		.loc 1 88 3 is_stmt 1 view .LVU71
 226              		.loc 1 88 24 is_stmt 0 view .LVU72
 227 00f2 0795     		str	r5, [sp, #28]
  89:Core/Src/gpio.c ****   GPIO_InitStruct.Pull = GPIO_PULLUP;
 228              		.loc 1 89 3 is_stmt 1 view .LVU73
 229              		.loc 1 89 24 is_stmt 0 view .LVU74
 230 00f4 0894     		str	r4, [sp, #32]
  90:Core/Src/gpio.c ****   HAL_GPIO_Init(GPIOE, &GPIO_InitStruct);
 231              		.loc 1 90 3 is_stmt 1 view .LVU75
 232 00f6 06A9     		add	r1, sp, #24
 233 00f8 3846     		mov	r0, r7
 234 00fa FFF7FEFF 		bl	HAL_GPIO_Init
 235              	.LVL6:
  91:Core/Src/gpio.c **** 
  92:Core/Src/gpio.c ****   /*Configure GPIO pin : PtPin */
  93:Core/Src/gpio.c ****   GPIO_InitStruct.Pin = INB_Pin;
 236              		.loc 1 93 3 view .LVU76
 237              		.loc 1 93 23 is_stmt 0 view .LVU77
 238 00fe CDF818A0 		str	r10, [sp, #24]
  94:Core/Src/gpio.c ****   GPIO_InitStruct.Mode = GPIO_MODE_OUTPUT_PP;
 239              		.loc 1 94 3 is_stmt 1 view .LVU78
 240              		.loc 1 94 24 is_stmt 0 view .LVU79
 241 0102 0794     		str	r4, [sp, #28]
  95:Core/Src/gpio.c ****   GPIO_InitStruct.Pull = GPIO_PULLUP;
 242              		.loc 1 95 3 is_stmt 1 view .LVU80
 243              		.loc 1 95 24 is_stmt 0 view .LVU81
 244 0104 0894     		str	r4, [sp, #32]
  96:Core/Src/gpio.c ****   GPIO_InitStruct.Speed = GPIO_SPEED_FREQ_HIGH;
 245              		.loc 1 96 3 is_stmt 1 view .LVU82
 246              		.loc 1 96 25 is_stmt 0 view .LVU83
 247 0106 0996     		str	r6, [sp, #36]
ARM GAS  C:\Users\ADMINI~1\AppData\Local\Temp\ccEijQpp.s 			page 7


  97:Core/Src/gpio.c ****   HAL_GPIO_Init(INB_GPIO_Port, &GPIO_InitStruct);
 248              		.loc 1 97 3 is_stmt 1 view .LVU84
 249 0108 06A9     		add	r1, sp, #24
 250 010a 4846     		mov	r0, r9
 251 010c FFF7FEFF 		bl	HAL_GPIO_Init
 252              	.LVL7:
  98:Core/Src/gpio.c **** 
  99:Core/Src/gpio.c **** }
 253              		.loc 1 99 1 is_stmt 0 view .LVU85
 254 0110 0AB0     		add	sp, sp, #40
 255              	.LCFI2:
 256              		.cfi_def_cfa_offset 32
 257              		@ sp needed
 258 0112 BDE8F087 		pop	{r4, r5, r6, r7, r8, r9, r10, pc}
 259              	.L4:
 260 0116 00BF     		.align	2
 261              	.L3:
 262 0118 00100240 		.word	1073876992
 263 011c 00180140 		.word	1073813504
 264 0120 001C0140 		.word	1073814528
 265 0124 00100140 		.word	1073811456
 266              		.cfi_endproc
 267              	.LFE65:
 269              		.text
 270              	.Letext0:
 271              		.file 2 "c:\\env\\embeddedtoolchain\\xpack-arm-none-eabi-gcc-10.3.1-2.3\\arm-none-eabi\\include\\m
 272              		.file 3 "c:\\env\\embeddedtoolchain\\xpack-arm-none-eabi-gcc-10.3.1-2.3\\arm-none-eabi\\include\\s
 273              		.file 4 "Drivers/CMSIS/Device/ST/STM32F1xx/Include/stm32f103xe.h"
 274              		.file 5 "Drivers/STM32F1xx_HAL_Driver/Inc/stm32f1xx_hal_gpio.h"
ARM GAS  C:\Users\ADMINI~1\AppData\Local\Temp\ccEijQpp.s 			page 8

