ARM GAS  C:\Users\ADMINI~1\AppData\Local\Temp\ccNFoyqI.s 			page 1


   1              		.cpu cortex-m3
   2              		.arch armv7-m
   3              		.fpu softvfp
   4              		.eabi_attribute 20, 1
   5              		.eabi_attribute 21, 1
   6              		.eabi_attribute 23, 3
   7              		.eabi_attribute 24, 1
   8              		.eabi_attribute 25, 1
   9              		.eabi_attribute 26, 1
  10              		.eabi_attribute 30, 1
  11              		.eabi_attribute 34, 1
  12              		.eabi_attribute 18, 4
  13              		.file	"key_driver.c"
  14              		.text
  15              	.Ltext0:
  16              		.cfi_sections	.debug_frame
  17              		.section	.rodata.PendCallback.str1.4,"aMS",%progbits,1
  18              		.align	2
  19              	.LC0:
  20 0000 50656E64 		.ascii	"PendCallback.\015\000"
  20      43616C6C 
  20      6261636B 
  20      2E0D00
  21              		.section	.text.PendCallback,"ax",%progbits
  22              		.align	1
  23              		.global	PendCallback
  24              		.syntax unified
  25              		.thumb
  26              		.thumb_func
  28              	PendCallback:
  29              	.LFB68:
  30              		.file 1 "App/SmartDevice/ModuleDriver/key_driver.c"
   1:App/SmartDevice/ModuleDriver/key_driver.c **** #include "key_Driver.h"
   2:App/SmartDevice/ModuleDriver/key_driver.c **** 
   3:App/SmartDevice/ModuleDriver/key_driver.c **** 
   4:App/SmartDevice/ModuleDriver/key_driver.c **** void PendCallback(void)
   5:App/SmartDevice/ModuleDriver/key_driver.c **** {
  31              		.loc 1 5 1 view -0
  32              		.cfi_startproc
  33              		@ args = 0, pretend = 0, frame = 0
  34              		@ frame_needed = 0, uses_anonymous_args = 0
  35 0000 08B5     		push	{r3, lr}
  36              	.LCFI0:
  37              		.cfi_def_cfa_offset 8
  38              		.cfi_offset 3, -8
  39              		.cfi_offset 14, -4
   6:App/SmartDevice/ModuleDriver/key_driver.c ****     printf("PendCallback.\r\n");
  40              		.loc 1 6 5 view .LVU1
  41 0002 0248     		ldr	r0, .L3
  42 0004 FFF7FEFF 		bl	puts
  43              	.LVL0:
   7:App/SmartDevice/ModuleDriver/key_driver.c **** }
  44              		.loc 1 7 1 is_stmt 0 view .LVU2
  45 0008 08BD     		pop	{r3, pc}
  46              	.L4:
  47 000a 00BF     		.align	2
  48              	.L3:
ARM GAS  C:\Users\ADMINI~1\AppData\Local\Temp\ccNFoyqI.s 			page 2


  49 000c 00000000 		.word	.LC0
  50              		.cfi_endproc
  51              	.LFE68:
  53              		.section	.text.Key_Init,"ax",%progbits
  54              		.align	1
  55              		.global	Key_Init
  56              		.syntax unified
  57              		.thumb
  58              		.thumb_func
  60              	Key_Init:
  61              	.LFB69:
   8:App/SmartDevice/ModuleDriver/key_driver.c **** 
   9:App/SmartDevice/ModuleDriver/key_driver.c **** 
  10:App/SmartDevice/ModuleDriver/key_driver.c **** void Key_Init(void)
  11:App/SmartDevice/ModuleDriver/key_driver.c **** {
  62              		.loc 1 11 1 is_stmt 1 view -0
  63              		.cfi_startproc
  64              		@ args = 0, pretend = 0, frame = 24
  65              		@ frame_needed = 0, uses_anonymous_args = 0
  66 0000 10B5     		push	{r4, lr}
  67              	.LCFI1:
  68              		.cfi_def_cfa_offset 8
  69              		.cfi_offset 4, -8
  70              		.cfi_offset 14, -4
  71 0002 86B0     		sub	sp, sp, #24
  72              	.LCFI2:
  73              		.cfi_def_cfa_offset 32
  12:App/SmartDevice/ModuleDriver/key_driver.c ****     GPIO_InitTypeDef GPIO_InitStruct = {0};
  74              		.loc 1 12 5 view .LVU4
  75              		.loc 1 12 22 is_stmt 0 view .LVU5
  76 0004 0024     		movs	r4, #0
  77 0006 0294     		str	r4, [sp, #8]
  78 0008 0394     		str	r4, [sp, #12]
  79 000a 0494     		str	r4, [sp, #16]
  80 000c 0594     		str	r4, [sp, #20]
  13:App/SmartDevice/ModuleDriver/key_driver.c **** 
  14:App/SmartDevice/ModuleDriver/key_driver.c ****     __HAL_RCC_GPIOE_CLK_ENABLE();
  81              		.loc 1 14 5 is_stmt 1 view .LVU6
  82              	.LBB2:
  83              		.loc 1 14 5 view .LVU7
  84              		.loc 1 14 5 view .LVU8
  85 000e 0F4B     		ldr	r3, .L7
  86 0010 9A69     		ldr	r2, [r3, #24]
  87 0012 42F04002 		orr	r2, r2, #64
  88 0016 9A61     		str	r2, [r3, #24]
  89              		.loc 1 14 5 view .LVU9
  90 0018 9B69     		ldr	r3, [r3, #24]
  91 001a 03F04003 		and	r3, r3, #64
  92 001e 0193     		str	r3, [sp, #4]
  93              		.loc 1 14 5 view .LVU10
  94 0020 019B     		ldr	r3, [sp, #4]
  95              	.LBE2:
  96              		.loc 1 14 5 view .LVU11
  15:App/SmartDevice/ModuleDriver/key_driver.c **** 
  16:App/SmartDevice/ModuleDriver/key_driver.c ****     GPIO_InitStruct.Pin = KEY1_Pin;         // 选择LED的引脚
  97              		.loc 1 16 5 view .LVU12
  98              		.loc 1 16 25 is_stmt 0 view .LVU13
ARM GAS  C:\Users\ADMINI~1\AppData\Local\Temp\ccNFoyqI.s 			page 3


  99 0022 4FF48043 		mov	r3, #16384
 100 0026 0293     		str	r3, [sp, #8]
  17:App/SmartDevice/ModuleDriver/key_driver.c ****     GPIO_InitStruct.Mode = GPIO_MODE_IT_RISING; // 设置为推挽输出模式
 101              		.loc 1 17 5 is_stmt 1 view .LVU14
 102              		.loc 1 17 26 is_stmt 0 view .LVU15
 103 0028 094B     		ldr	r3, .L7+4
 104 002a 0393     		str	r3, [sp, #12]
  18:App/SmartDevice/ModuleDriver/key_driver.c ****     GPIO_InitStruct.Pull = GPIO_PULLUP;         // 默认上拉
 105              		.loc 1 18 5 is_stmt 1 view .LVU16
 106              		.loc 1 18 26 is_stmt 0 view .LVU17
 107 002c 0123     		movs	r3, #1
 108 002e 0493     		str	r3, [sp, #16]
  19:App/SmartDevice/ModuleDriver/key_driver.c **** 
  20:App/SmartDevice/ModuleDriver/key_driver.c ****     // 初始化引脚配置
  21:App/SmartDevice/ModuleDriver/key_driver.c ****     HAL_GPIO_Init(KEY1_GPIO_Port, &GPIO_InitStruct);
 109              		.loc 1 21 5 is_stmt 1 view .LVU18
 110 0030 02A9     		add	r1, sp, #8
 111 0032 0848     		ldr	r0, .L7+8
 112 0034 FFF7FEFF 		bl	HAL_GPIO_Init
 113              	.LVL1:
  22:App/SmartDevice/ModuleDriver/key_driver.c **** 
  23:App/SmartDevice/ModuleDriver/key_driver.c ****     /* 1.设置中断优先级 */
  24:App/SmartDevice/ModuleDriver/key_driver.c ****     HAL_NVIC_SetPriority(EXTI15_10_IRQn, 0, 2);
 114              		.loc 1 24 5 view .LVU19
 115 0038 0222     		movs	r2, #2
 116 003a 2146     		mov	r1, r4
 117 003c 2820     		movs	r0, #40
 118 003e FFF7FEFF 		bl	HAL_NVIC_SetPriority
 119              	.LVL2:
  25:App/SmartDevice/ModuleDriver/key_driver.c ****     /* 2.使能外部中断 */
  26:App/SmartDevice/ModuleDriver/key_driver.c ****     HAL_NVIC_EnableIRQ(EXTI15_10_IRQn);
 120              		.loc 1 26 5 view .LVU20
 121 0042 2820     		movs	r0, #40
 122 0044 FFF7FEFF 		bl	HAL_NVIC_EnableIRQ
 123              	.LVL3:
  27:App/SmartDevice/ModuleDriver/key_driver.c **** 
  28:App/SmartDevice/ModuleDriver/key_driver.c **** }
 124              		.loc 1 28 1 is_stmt 0 view .LVU21
 125 0048 06B0     		add	sp, sp, #24
 126              	.LCFI3:
 127              		.cfi_def_cfa_offset 8
 128              		@ sp needed
 129 004a 10BD     		pop	{r4, pc}
 130              	.L8:
 131              		.align	2
 132              	.L7:
 133 004c 00100240 		.word	1073876992
 134 0050 00001110 		.word	269549568
 135 0054 00180140 		.word	1073813504
 136              		.cfi_endproc
 137              	.LFE69:
 139              		.section	.text.EXTI15_10_IRQHandler,"ax",%progbits
 140              		.align	1
 141              		.global	EXTI15_10_IRQHandler
 142              		.syntax unified
 143              		.thumb
 144              		.thumb_func
ARM GAS  C:\Users\ADMINI~1\AppData\Local\Temp\ccNFoyqI.s 			page 4


 146              	EXTI15_10_IRQHandler:
 147              	.LFB70:
  29:App/SmartDevice/ModuleDriver/key_driver.c **** 
  30:App/SmartDevice/ModuleDriver/key_driver.c **** /* 3.重定向中断服务函数 */
  31:App/SmartDevice/ModuleDriver/key_driver.c **** void EXTI15_10_IRQHandler(void)
  32:App/SmartDevice/ModuleDriver/key_driver.c **** {
 148              		.loc 1 32 1 is_stmt 1 view -0
 149              		.cfi_startproc
 150              		@ args = 0, pretend = 0, frame = 0
 151              		@ frame_needed = 0, uses_anonymous_args = 0
 152 0000 08B5     		push	{r3, lr}
 153              	.LCFI4:
 154              		.cfi_def_cfa_offset 8
 155              		.cfi_offset 3, -8
 156              		.cfi_offset 14, -4
  33:App/SmartDevice/ModuleDriver/key_driver.c ****     HAL_GPIO_EXTI_IRQHandler(KEY1_Pin);
 157              		.loc 1 33 5 view .LVU23
 158 0002 4FF48040 		mov	r0, #16384
 159 0006 FFF7FEFF 		bl	HAL_GPIO_EXTI_IRQHandler
 160              	.LVL4:
  34:App/SmartDevice/ModuleDriver/key_driver.c ****     HAL_GPIO_EXTI_IRQHandler(KEY2_Pin);
 161              		.loc 1 34 5 view .LVU24
 162 000a 4FF40040 		mov	r0, #32768
 163 000e FFF7FEFF 		bl	HAL_GPIO_EXTI_IRQHandler
 164              	.LVL5:
  35:App/SmartDevice/ModuleDriver/key_driver.c **** }
 165              		.loc 1 35 1 is_stmt 0 view .LVU25
 166 0012 08BD     		pop	{r3, pc}
 167              		.cfi_endproc
 168              	.LFE70:
 170              		.section	.text.HAL_GPIO_EXTI_Callback,"ax",%progbits
 171              		.align	1
 172              		.global	HAL_GPIO_EXTI_Callback
 173              		.syntax unified
 174              		.thumb
 175              		.thumb_func
 177              	HAL_GPIO_EXTI_Callback:
 178              	.LVL6:
 179              	.LFB71:
  36:App/SmartDevice/ModuleDriver/key_driver.c **** 
  37:App/SmartDevice/ModuleDriver/key_driver.c **** 
  38:App/SmartDevice/ModuleDriver/key_driver.c **** void HAL_GPIO_EXTI_Callback(uint16_t GPIO_Pin)
  39:App/SmartDevice/ModuleDriver/key_driver.c **** {
 180              		.loc 1 39 1 is_stmt 1 view -0
 181              		.cfi_startproc
 182              		@ args = 0, pretend = 0, frame = 128
 183              		@ frame_needed = 0, uses_anonymous_args = 0
 184              		.loc 1 39 1 is_stmt 0 view .LVU27
 185 0000 00B5     		push	{lr}
 186              	.LCFI5:
 187              		.cfi_def_cfa_offset 4
 188              		.cfi_offset 14, -4
 189 0002 BDB0     		sub	sp, sp, #244
 190              	.LCFI6:
 191              		.cfi_def_cfa_offset 248
  40:App/SmartDevice/ModuleDriver/key_driver.c ****     InputEvent inputEvent;
 192              		.loc 1 40 5 is_stmt 1 view .LVU28
ARM GAS  C:\Users\ADMINI~1\AppData\Local\Temp\ccNFoyqI.s 			page 5


  41:App/SmartDevice/ModuleDriver/key_driver.c **** 
  42:App/SmartDevice/ModuleDriver/key_driver.c ****     /* 消除按键抖动 */
  43:App/SmartDevice/ModuleDriver/key_driver.c **** 
  44:App/SmartDevice/ModuleDriver/key_driver.c ****     if(GPIO_Pin == KEY1_Pin)
 193              		.loc 1 44 5 view .LVU29
 194              		.loc 1 44 7 is_stmt 0 view .LVU30
 195 0004 B0F5804F 		cmp	r0, #16384
 196 0008 05D0     		beq	.L15
  45:App/SmartDevice/ModuleDriver/key_driver.c ****     {
  46:App/SmartDevice/ModuleDriver/key_driver.c ****         inputEvent.time = KAL_GetTime();
  47:App/SmartDevice/ModuleDriver/key_driver.c ****         inputEvent.eType = INPUT_EVENT_TYPE_KEY;
  48:App/SmartDevice/ModuleDriver/key_driver.c ****         inputEvent.iKey = KEY1;
  49:App/SmartDevice/ModuleDriver/key_driver.c ****         inputEvent.iPressure = !KEY1_STATE;
  50:App/SmartDevice/ModuleDriver/key_driver.c **** 
  51:App/SmartDevice/ModuleDriver/key_driver.c ****         PutEventIntoBuffer(inputEvent);        
  52:App/SmartDevice/ModuleDriver/key_driver.c ****     }
  53:App/SmartDevice/ModuleDriver/key_driver.c ****     else if (GPIO_Pin == KEY2_Pin)
 197              		.loc 1 53 10 is_stmt 1 view .LVU31
 198              		.loc 1 53 13 is_stmt 0 view .LVU32
 199 000a B0F5004F 		cmp	r0, #32768
 200 000e 1DD0     		beq	.L16
 201              	.LVL7:
 202              	.L11:
  54:App/SmartDevice/ModuleDriver/key_driver.c ****     {
  55:App/SmartDevice/ModuleDriver/key_driver.c ****         inputEvent.time = KAL_GetTime();
  56:App/SmartDevice/ModuleDriver/key_driver.c ****         inputEvent.eType = INPUT_EVENT_TYPE_KEY;
  57:App/SmartDevice/ModuleDriver/key_driver.c ****         inputEvent.iKey = KEY2;
  58:App/SmartDevice/ModuleDriver/key_driver.c ****         inputEvent.iPressure = !KEY2_STATE;
  59:App/SmartDevice/ModuleDriver/key_driver.c **** 
  60:App/SmartDevice/ModuleDriver/key_driver.c ****         PutEventIntoBuffer(inputEvent);   
  61:App/SmartDevice/ModuleDriver/key_driver.c ****     }
  62:App/SmartDevice/ModuleDriver/key_driver.c ****     
  63:App/SmartDevice/ModuleDriver/key_driver.c **** }
 203              		.loc 1 63 1 view .LVU33
 204 0010 3DB0     		add	sp, sp, #244
 205              	.LCFI7:
 206              		.cfi_remember_state
 207              		.cfi_def_cfa_offset 4
 208              		@ sp needed
 209 0012 5DF804FB 		ldr	pc, [sp], #4
 210              	.LVL8:
 211              	.L15:
 212              	.LCFI8:
 213              		.cfi_restore_state
  46:App/SmartDevice/ModuleDriver/key_driver.c ****         inputEvent.eType = INPUT_EVENT_TYPE_KEY;
 214              		.loc 1 46 9 is_stmt 1 view .LVU34
  46:App/SmartDevice/ModuleDriver/key_driver.c ****         inputEvent.eType = INPUT_EVENT_TYPE_KEY;
 215              		.loc 1 46 27 is_stmt 0 view .LVU35
 216 0016 FFF7FEFF 		bl	KAL_GetTime
 217              	.LVL9:
  46:App/SmartDevice/ModuleDriver/key_driver.c ****         inputEvent.eType = INPUT_EVENT_TYPE_KEY;
 218              		.loc 1 46 25 view .LVU36
 219 001a 1D90     		str	r0, [sp, #116]
  47:App/SmartDevice/ModuleDriver/key_driver.c ****         inputEvent.iKey = KEY1;
 220              		.loc 1 47 9 is_stmt 1 view .LVU37
  47:App/SmartDevice/ModuleDriver/key_driver.c ****         inputEvent.iKey = KEY1;
 221              		.loc 1 47 26 is_stmt 0 view .LVU38
ARM GAS  C:\Users\ADMINI~1\AppData\Local\Temp\ccNFoyqI.s 			page 6


 222 001c 0023     		movs	r3, #0
 223 001e 8DF87830 		strb	r3, [sp, #120]
  48:App/SmartDevice/ModuleDriver/key_driver.c ****         inputEvent.iPressure = !KEY1_STATE;
 224              		.loc 1 48 9 is_stmt 1 view .LVU39
  48:App/SmartDevice/ModuleDriver/key_driver.c ****         inputEvent.iPressure = !KEY1_STATE;
 225              		.loc 1 48 25 is_stmt 0 view .LVU40
 226 0022 0123     		movs	r3, #1
 227 0024 2193     		str	r3, [sp, #132]
  49:App/SmartDevice/ModuleDriver/key_driver.c **** 
 228              		.loc 1 49 9 is_stmt 1 view .LVU41
  49:App/SmartDevice/ModuleDriver/key_driver.c **** 
 229              		.loc 1 49 33 is_stmt 0 view .LVU42
 230 0026 4FF48041 		mov	r1, #16384
 231 002a 1648     		ldr	r0, .L17
 232 002c FFF7FEFF 		bl	HAL_GPIO_ReadPin
 233              	.LVL10:
  49:App/SmartDevice/ModuleDriver/key_driver.c **** 
 234              		.loc 1 49 32 view .LVU43
 235 0030 B0FA80F0 		clz	r0, r0
 236 0034 4009     		lsrs	r0, r0, #5
  49:App/SmartDevice/ModuleDriver/key_driver.c **** 
 237              		.loc 1 49 30 view .LVU44
 238 0036 2290     		str	r0, [sp, #136]
  49:App/SmartDevice/ModuleDriver/key_driver.c **** 
 239              		.loc 1 49 43 is_stmt 1 view .LVU45
  51:App/SmartDevice/ModuleDriver/key_driver.c ****     }
 240              		.loc 1 51 9 view .LVU46
 241 0038 6C22     		movs	r2, #108
 242 003a 21A9     		add	r1, sp, #132
 243 003c 6846     		mov	r0, sp
 244 003e FFF7FEFF 		bl	memcpy
 245              	.LVL11:
 246 0042 1DAB     		add	r3, sp, #116
 247 0044 0FCB     		ldm	r3, {r0, r1, r2, r3}
 248 0046 FFF7FEFF 		bl	PutEventIntoBuffer
 249              	.LVL12:
 250 004a E1E7     		b	.L11
 251              	.LVL13:
 252              	.L16:
  55:App/SmartDevice/ModuleDriver/key_driver.c ****         inputEvent.eType = INPUT_EVENT_TYPE_KEY;
 253              		.loc 1 55 9 view .LVU47
  55:App/SmartDevice/ModuleDriver/key_driver.c ****         inputEvent.eType = INPUT_EVENT_TYPE_KEY;
 254              		.loc 1 55 27 is_stmt 0 view .LVU48
 255 004c FFF7FEFF 		bl	KAL_GetTime
 256              	.LVL14:
  55:App/SmartDevice/ModuleDriver/key_driver.c ****         inputEvent.eType = INPUT_EVENT_TYPE_KEY;
 257              		.loc 1 55 25 view .LVU49
 258 0050 1D90     		str	r0, [sp, #116]
  56:App/SmartDevice/ModuleDriver/key_driver.c ****         inputEvent.iKey = KEY2;
 259              		.loc 1 56 9 is_stmt 1 view .LVU50
  56:App/SmartDevice/ModuleDriver/key_driver.c ****         inputEvent.iKey = KEY2;
 260              		.loc 1 56 26 is_stmt 0 view .LVU51
 261 0052 0023     		movs	r3, #0
 262 0054 8DF87830 		strb	r3, [sp, #120]
  57:App/SmartDevice/ModuleDriver/key_driver.c ****         inputEvent.iPressure = !KEY2_STATE;
 263              		.loc 1 57 9 is_stmt 1 view .LVU52
  57:App/SmartDevice/ModuleDriver/key_driver.c ****         inputEvent.iPressure = !KEY2_STATE;
ARM GAS  C:\Users\ADMINI~1\AppData\Local\Temp\ccNFoyqI.s 			page 7


 264              		.loc 1 57 25 is_stmt 0 view .LVU53
 265 0058 0223     		movs	r3, #2
 266 005a 2193     		str	r3, [sp, #132]
  58:App/SmartDevice/ModuleDriver/key_driver.c **** 
 267              		.loc 1 58 9 is_stmt 1 view .LVU54
  58:App/SmartDevice/ModuleDriver/key_driver.c **** 
 268              		.loc 1 58 33 is_stmt 0 view .LVU55
 269 005c 4FF40041 		mov	r1, #32768
 270 0060 0848     		ldr	r0, .L17
 271 0062 FFF7FEFF 		bl	HAL_GPIO_ReadPin
 272              	.LVL15:
  58:App/SmartDevice/ModuleDriver/key_driver.c **** 
 273              		.loc 1 58 32 view .LVU56
 274 0066 B0FA80F0 		clz	r0, r0
 275 006a 4009     		lsrs	r0, r0, #5
  58:App/SmartDevice/ModuleDriver/key_driver.c **** 
 276              		.loc 1 58 30 view .LVU57
 277 006c 2290     		str	r0, [sp, #136]
  58:App/SmartDevice/ModuleDriver/key_driver.c **** 
 278              		.loc 1 58 43 is_stmt 1 view .LVU58
  60:App/SmartDevice/ModuleDriver/key_driver.c ****     }
 279              		.loc 1 60 9 view .LVU59
 280 006e 6C22     		movs	r2, #108
 281 0070 21A9     		add	r1, sp, #132
 282 0072 6846     		mov	r0, sp
 283 0074 FFF7FEFF 		bl	memcpy
 284              	.LVL16:
 285 0078 1DAB     		add	r3, sp, #116
 286 007a 0FCB     		ldm	r3, {r0, r1, r2, r3}
 287 007c FFF7FEFF 		bl	PutEventIntoBuffer
 288              	.LVL17:
 289              		.loc 1 63 1 is_stmt 0 view .LVU60
 290 0080 C6E7     		b	.L11
 291              	.L18:
 292 0082 00BF     		.align	2
 293              	.L17:
 294 0084 00180140 		.word	1073813504
 295              		.cfi_endproc
 296              	.LFE71:
 298              		.text
 299              	.Letext0:
 300              		.file 2 "c:\\env\\embeddedtoolchain\\xpack-arm-none-eabi-gcc-10.3.1-2.3\\arm-none-eabi\\include\\m
 301              		.file 3 "c:\\env\\embeddedtoolchain\\xpack-arm-none-eabi-gcc-10.3.1-2.3\\arm-none-eabi\\include\\s
 302              		.file 4 "Drivers/CMSIS/Device/ST/STM32F1xx/Include/stm32f103xe.h"
 303              		.file 5 "Drivers/STM32F1xx_HAL_Driver/Inc/stm32f1xx_hal_gpio.h"
 304              		.file 6 "App/SmartDevice/SubSystems/system_type.h"
 305              		.file 7 "App/SmartDevice/KAL/general_kal.h"
 306              		.file 8 "App/SmartDevice/ModuleDriver/ring_Buffer.h"
 307              		.file 9 "Drivers/STM32F1xx_HAL_Driver/Inc/stm32f1xx_hal_cortex.h"
 308              		.file 10 "<built-in>"
ARM GAS  C:\Users\ADMINI~1\AppData\Local\Temp\ccNFoyqI.s 			page 8

