ARM GAS  C:\Users\ADMINI~1\AppData\Local\Temp\ccU3XwtT.s 			page 1


   1              		.cpu cortex-m3
   2              		.arch armv7-m
   3              		.fpu softvfp
   4              		.eabi_attribute 20, 1
   5              		.eabi_attribute 21, 1
   6              		.eabi_attribute 23, 3
   7              		.eabi_attribute 24, 1
   8              		.eabi_attribute 25, 1
   9              		.eabi_attribute 26, 1
  10              		.eabi_attribute 30, 1
  11              		.eabi_attribute 34, 1
  12              		.eabi_attribute 18, 4
  13              		.file	"led_driver.c"
  14              		.text
  15              	.Ltext0:
  16              		.cfi_sections	.debug_frame
  17              		.section	.text.Led_Init,"ax",%progbits
  18              		.align	1
  19              		.global	Led_Init
  20              		.syntax unified
  21              		.thumb
  22              		.thumb_func
  24              	Led_Init:
  25              	.LVL0:
  26              	.LFB68:
  27              		.file 1 "App/SmartDevice/ModuleDriver/led_driver.c"
   1:App/SmartDevice/ModuleDriver/led_driver.c **** #include "led_driver.h"
   2:App/SmartDevice/ModuleDriver/led_driver.c **** 
   3:App/SmartDevice/ModuleDriver/led_driver.c **** int Led_Init(LedDevice *pLedDevice)
   4:App/SmartDevice/ModuleDriver/led_driver.c **** {
  28              		.loc 1 4 1 view -0
  29              		.cfi_startproc
  30              		@ args = 0, pretend = 0, frame = 24
  31              		@ frame_needed = 0, uses_anonymous_args = 0
  32              		.loc 1 4 1 is_stmt 0 view .LVU1
  33 0000 00B5     		push	{lr}
  34              	.LCFI0:
  35              		.cfi_def_cfa_offset 4
  36              		.cfi_offset 14, -4
  37 0002 87B0     		sub	sp, sp, #28
  38              	.LCFI1:
  39              		.cfi_def_cfa_offset 32
   5:App/SmartDevice/ModuleDriver/led_driver.c ****     GPIO_InitTypeDef GPIO_InitStruct = {0};
  40              		.loc 1 5 5 is_stmt 1 view .LVU2
  41              		.loc 1 5 22 is_stmt 0 view .LVU3
  42 0004 0023     		movs	r3, #0
  43 0006 0293     		str	r3, [sp, #8]
  44 0008 0393     		str	r3, [sp, #12]
  45 000a 0493     		str	r3, [sp, #16]
  46 000c 0593     		str	r3, [sp, #20]
   6:App/SmartDevice/ModuleDriver/led_driver.c **** 
   7:App/SmartDevice/ModuleDriver/led_driver.c ****       /* GPIO Ports Clock Enable */
   8:App/SmartDevice/ModuleDriver/led_driver.c ****     __HAL_RCC_GPIOE_CLK_ENABLE();
  47              		.loc 1 8 5 is_stmt 1 view .LVU4
  48              	.LBB2:
  49              		.loc 1 8 5 view .LVU5
  50              		.loc 1 8 5 view .LVU6
ARM GAS  C:\Users\ADMINI~1\AppData\Local\Temp\ccU3XwtT.s 			page 2


  51 000e 03F18043 		add	r3, r3, #1073741824
  52 0012 03F50433 		add	r3, r3, #135168
  53 0016 9A69     		ldr	r2, [r3, #24]
  54 0018 42F04002 		orr	r2, r2, #64
  55 001c 9A61     		str	r2, [r3, #24]
  56              		.loc 1 8 5 view .LVU7
  57 001e 9A69     		ldr	r2, [r3, #24]
  58 0020 02F04002 		and	r2, r2, #64
  59 0024 0092     		str	r2, [sp]
  60              		.loc 1 8 5 view .LVU8
  61 0026 009A     		ldr	r2, [sp]
  62              	.LBE2:
  63              		.loc 1 8 5 view .LVU9
   9:App/SmartDevice/ModuleDriver/led_driver.c ****     __HAL_RCC_GPIOF_CLK_ENABLE();
  64              		.loc 1 9 5 view .LVU10
  65              	.LBB3:
  66              		.loc 1 9 5 view .LVU11
  67              		.loc 1 9 5 view .LVU12
  68 0028 9A69     		ldr	r2, [r3, #24]
  69 002a 42F08002 		orr	r2, r2, #128
  70 002e 9A61     		str	r2, [r3, #24]
  71              		.loc 1 9 5 view .LVU13
  72 0030 9B69     		ldr	r3, [r3, #24]
  73 0032 03F08003 		and	r3, r3, #128
  74 0036 0193     		str	r3, [sp, #4]
  75              		.loc 1 9 5 view .LVU14
  76 0038 019B     		ldr	r3, [sp, #4]
  77              	.LBE3:
  78              		.loc 1 9 5 view .LVU15
  10:App/SmartDevice/ModuleDriver/led_driver.c **** 
  11:App/SmartDevice/ModuleDriver/led_driver.c ****     switch (pLedDevice->which)
  79              		.loc 1 11 5 view .LVU16
  80              		.loc 1 11 23 is_stmt 0 view .LVU17
  81 003a 0368     		ldr	r3, [r0]
  82              		.loc 1 11 5 view .LVU18
  83 003c 012B     		cmp	r3, #1
  84 003e 12D0     		beq	.L2
  85 0040 022B     		cmp	r3, #2
  86 0042 14D0     		beq	.L3
  87 0044 0BB1     		cbz	r3, .L8
  88 0046 0320     		movs	r0, #3
  89              	.LVL1:
  90              		.loc 1 11 5 view .LVU19
  91 0048 0AE0     		b	.L1
  92              	.LVL2:
  93              	.L8:
  12:App/SmartDevice/ModuleDriver/led_driver.c ****     {
  13:App/SmartDevice/ModuleDriver/led_driver.c ****     case LED_WHITE:
  14:App/SmartDevice/ModuleDriver/led_driver.c ****         GPIO_InitStruct.Pin = WHITE_Pin;
  94              		.loc 1 14 9 is_stmt 1 view .LVU20
  95              		.loc 1 14 29 is_stmt 0 view .LVU21
  96 004a 8023     		movs	r3, #128
  97 004c 0293     		str	r3, [sp, #8]
  15:App/SmartDevice/ModuleDriver/led_driver.c ****         break;
  98              		.loc 1 15 9 is_stmt 1 view .LVU22
  99              	.L5:
  16:App/SmartDevice/ModuleDriver/led_driver.c **** 
ARM GAS  C:\Users\ADMINI~1\AppData\Local\Temp\ccU3XwtT.s 			page 3


  17:App/SmartDevice/ModuleDriver/led_driver.c ****     case LED_BLUE:
  18:App/SmartDevice/ModuleDriver/led_driver.c ****         GPIO_InitStruct.Pin = BLUE_Pin;
  19:App/SmartDevice/ModuleDriver/led_driver.c ****         break;
  20:App/SmartDevice/ModuleDriver/led_driver.c **** 
  21:App/SmartDevice/ModuleDriver/led_driver.c ****     case LED_GREEN:
  22:App/SmartDevice/ModuleDriver/led_driver.c ****         GPIO_InitStruct.Pin = GREEN_Pin;
  23:App/SmartDevice/ModuleDriver/led_driver.c ****         break;
  24:App/SmartDevice/ModuleDriver/led_driver.c ****     
  25:App/SmartDevice/ModuleDriver/led_driver.c ****     default:
  26:App/SmartDevice/ModuleDriver/led_driver.c ****         return NOT_FOUND;
  27:App/SmartDevice/ModuleDriver/led_driver.c ****         break;
 100              		.loc 1 27 9 view .LVU23
  28:App/SmartDevice/ModuleDriver/led_driver.c ****     }
  29:App/SmartDevice/ModuleDriver/led_driver.c **** 
  30:App/SmartDevice/ModuleDriver/led_driver.c ****     GPIO_InitStruct.Mode = GPIO_MODE_OUTPUT_PP; 
 101              		.loc 1 30 5 view .LVU24
 102              		.loc 1 30 26 is_stmt 0 view .LVU25
 103 004e 0123     		movs	r3, #1
 104 0050 0393     		str	r3, [sp, #12]
  31:App/SmartDevice/ModuleDriver/led_driver.c ****     GPIO_InitStruct.Pull = GPIO_NOPULL;
 105              		.loc 1 31 5 is_stmt 1 view .LVU26
  32:App/SmartDevice/ModuleDriver/led_driver.c ****     GPIO_InitStruct.Speed = GPIO_SPEED_FREQ_LOW;
 106              		.loc 1 32 5 view .LVU27
 107              		.loc 1 32 27 is_stmt 0 view .LVU28
 108 0052 0223     		movs	r3, #2
 109 0054 0593     		str	r3, [sp, #20]
  33:App/SmartDevice/ModuleDriver/led_driver.c **** 
  34:App/SmartDevice/ModuleDriver/led_driver.c ****     // 初始化引脚配置
  35:App/SmartDevice/ModuleDriver/led_driver.c ****     HAL_GPIO_Init(GPIOF, &GPIO_InitStruct);
 110              		.loc 1 35 5 is_stmt 1 view .LVU29
 111 0056 02A9     		add	r1, sp, #8
 112 0058 0748     		ldr	r0, .L9
 113              	.LVL3:
 114              		.loc 1 35 5 is_stmt 0 view .LVU30
 115 005a FFF7FEFF 		bl	HAL_GPIO_Init
 116              	.LVL4:
  36:App/SmartDevice/ModuleDriver/led_driver.c **** 
  37:App/SmartDevice/ModuleDriver/led_driver.c ****     return RETURN_SUCCESS;
 117              		.loc 1 37 5 is_stmt 1 view .LVU31
 118              		.loc 1 37 12 is_stmt 0 view .LVU32
 119 005e 0020     		movs	r0, #0
 120              	.L1:
  38:App/SmartDevice/ModuleDriver/led_driver.c **** }
 121              		.loc 1 38 1 view .LVU33
 122 0060 07B0     		add	sp, sp, #28
 123              	.LCFI2:
 124              		.cfi_remember_state
 125              		.cfi_def_cfa_offset 4
 126              		@ sp needed
 127 0062 5DF804FB 		ldr	pc, [sp], #4
 128              	.LVL5:
 129              	.L2:
 130              	.LCFI3:
 131              		.cfi_restore_state
  18:App/SmartDevice/ModuleDriver/led_driver.c ****         break;
 132              		.loc 1 18 9 is_stmt 1 view .LVU34
  18:App/SmartDevice/ModuleDriver/led_driver.c ****         break;
ARM GAS  C:\Users\ADMINI~1\AppData\Local\Temp\ccU3XwtT.s 			page 4


 133              		.loc 1 18 29 is_stmt 0 view .LVU35
 134 0066 4FF48073 		mov	r3, #256
 135 006a 0293     		str	r3, [sp, #8]
  19:App/SmartDevice/ModuleDriver/led_driver.c **** 
 136              		.loc 1 19 9 is_stmt 1 view .LVU36
 137 006c EFE7     		b	.L5
 138              	.L3:
  22:App/SmartDevice/ModuleDriver/led_driver.c ****         break;
 139              		.loc 1 22 9 view .LVU37
  22:App/SmartDevice/ModuleDriver/led_driver.c ****         break;
 140              		.loc 1 22 29 is_stmt 0 view .LVU38
 141 006e 4FF40073 		mov	r3, #512
 142 0072 0293     		str	r3, [sp, #8]
  23:App/SmartDevice/ModuleDriver/led_driver.c ****     
 143              		.loc 1 23 9 is_stmt 1 view .LVU39
 144 0074 EBE7     		b	.L5
 145              	.L10:
 146 0076 00BF     		.align	2
 147              	.L9:
 148 0078 001C0140 		.word	1073814528
 149              		.cfi_endproc
 150              	.LFE68:
 152              		.section	.text.LedControl,"ax",%progbits
 153              		.align	1
 154              		.global	LedControl
 155              		.syntax unified
 156              		.thumb
 157              		.thumb_func
 159              	LedControl:
 160              	.LVL6:
 161              	.LFB69:
  39:App/SmartDevice/ModuleDriver/led_driver.c **** 
  40:App/SmartDevice/ModuleDriver/led_driver.c **** int LedControl(LedDevice *pLedDevice, int iStatus)
  41:App/SmartDevice/ModuleDriver/led_driver.c **** {
 162              		.loc 1 41 1 view -0
 163              		.cfi_startproc
 164              		@ args = 0, pretend = 0, frame = 0
 165              		@ frame_needed = 0, uses_anonymous_args = 0
 166              		.loc 1 41 1 is_stmt 0 view .LVU41
 167 0000 10B5     		push	{r4, lr}
 168              	.LCFI4:
 169              		.cfi_def_cfa_offset 8
 170              		.cfi_offset 4, -8
 171              		.cfi_offset 14, -4
  42:App/SmartDevice/ModuleDriver/led_driver.c ****     switch (pLedDevice->which)
 172              		.loc 1 42 5 is_stmt 1 view .LVU42
 173              		.loc 1 42 23 is_stmt 0 view .LVU43
 174 0002 0468     		ldr	r4, [r0]
 175              		.loc 1 42 5 view .LVU44
 176 0004 012C     		cmp	r4, #1
 177 0006 0DD0     		beq	.L12
 178 0008 022C     		cmp	r4, #2
 179 000a 15D0     		beq	.L13
 180 000c 14B1     		cbz	r4, .L17
 181 000e 0324     		movs	r4, #3
 182              	.LVL7:
 183              	.L11:
ARM GAS  C:\Users\ADMINI~1\AppData\Local\Temp\ccU3XwtT.s 			page 5


  43:App/SmartDevice/ModuleDriver/led_driver.c ****     {
  44:App/SmartDevice/ModuleDriver/led_driver.c ****         case LED_WHITE:
  45:App/SmartDevice/ModuleDriver/led_driver.c ****             HAL_GPIO_WritePin(WHITE_GPIO_Port, WHITE_Pin, !iStatus);
  46:App/SmartDevice/ModuleDriver/led_driver.c ****             break;
  47:App/SmartDevice/ModuleDriver/led_driver.c **** 
  48:App/SmartDevice/ModuleDriver/led_driver.c ****         case LED_BLUE:
  49:App/SmartDevice/ModuleDriver/led_driver.c ****             HAL_GPIO_WritePin(BLUE_GPIO_Port, BLUE_Pin, !iStatus);
  50:App/SmartDevice/ModuleDriver/led_driver.c ****             break;
  51:App/SmartDevice/ModuleDriver/led_driver.c **** 
  52:App/SmartDevice/ModuleDriver/led_driver.c ****         case LED_GREEN:
  53:App/SmartDevice/ModuleDriver/led_driver.c ****             HAL_GPIO_WritePin(GREEN_GPIO_Port, GREEN_Pin, !iStatus);
  54:App/SmartDevice/ModuleDriver/led_driver.c ****             break;
  55:App/SmartDevice/ModuleDriver/led_driver.c ****     
  56:App/SmartDevice/ModuleDriver/led_driver.c ****     default:
  57:App/SmartDevice/ModuleDriver/led_driver.c ****         return NOT_FOUND;
  58:App/SmartDevice/ModuleDriver/led_driver.c ****     }
  59:App/SmartDevice/ModuleDriver/led_driver.c ****     
  60:App/SmartDevice/ModuleDriver/led_driver.c ****     return 0;
  61:App/SmartDevice/ModuleDriver/led_driver.c **** }...
 184              		.loc 1 61 1 view .LVU45
 185 0010 2046     		mov	r0, r4
 186 0012 10BD     		pop	{r4, pc}
 187              	.LVL8:
 188              	.L17:
  45:App/SmartDevice/ModuleDriver/led_driver.c ****             HAL_GPIO_WritePin(WHITE_GPIO_Port, WHITE_Pin, !iStatus);
 189              		.loc 1 45 13 is_stmt 1 view .LVU46
 190 0014 B1FA81F2 		clz	r2, r1
 191 0018 5209     		lsrs	r2, r2, #5
 192 001a 8021     		movs	r1, #128
 193              	.LVL9:
  45:App/SmartDevice/ModuleDriver/led_driver.c ****             HAL_GPIO_WritePin(WHITE_GPIO_Port, WHITE_Pin, !iStatus);
 194              		.loc 1 45 13 is_stmt 0 view .LVU47
 195 001c 0B48     		ldr	r0, .L18
 196              	.LVL10:
  45:App/SmartDevice/ModuleDriver/led_driver.c ****             HAL_GPIO_WritePin(WHITE_GPIO_Port, WHITE_Pin, !iStatus);
 197              		.loc 1 45 13 view .LVU48
 198 001e FFF7FEFF 		bl	HAL_GPIO_WritePin
 199              	.LVL11:
  46:App/SmartDevice/ModuleDriver/led_driver.c ****             break;
 200              		.loc 1 46 13 is_stmt 1 view .LVU49
 201 0022 F5E7     		b	.L11
 202              	.LVL12:
 203              	.L12:
  49:App/SmartDevice/ModuleDriver/led_driver.c ****             HAL_GPIO_WritePin(BLUE_GPIO_Port, BLUE_Pin, !iStatus);
 204              		.loc 1 49 13 view .LVU50
 205 0024 B1FA81F2 		clz	r2, r1
 206 0028 5209     		lsrs	r2, r2, #5
 207 002a 4FF48071 		mov	r1, #256
 208              	.LVL13:
  49:App/SmartDevice/ModuleDriver/led_driver.c ****             HAL_GPIO_WritePin(BLUE_GPIO_Port, BLUE_Pin, !iStatus);
 209              		.loc 1 49 13 is_stmt 0 view .LVU51
 210 002e 0748     		ldr	r0, .L18
 211              	.LVL14:
  49:App/SmartDevice/ModuleDriver/led_driver.c ****             HAL_GPIO_WritePin(BLUE_GPIO_Port, BLUE_Pin, !iStatus);
 212              		.loc 1 49 13 view .LVU52
 213 0030 FFF7FEFF 		bl	HAL_GPIO_WritePin
 214              	.LVL15:
ARM GAS  C:\Users\ADMINI~1\AppData\Local\Temp\ccU3XwtT.s 			page 6


  50:App/SmartDevice/ModuleDriver/led_driver.c ****             break;
 215              		.loc 1 50 13 is_stmt 1 view .LVU53
  60:App/SmartDevice/ModuleDriver/led_driver.c ****     return 0;
 216              		.loc 1 60 12 is_stmt 0 view .LVU54
 217 0034 0024     		movs	r4, #0
  50:App/SmartDevice/ModuleDriver/led_driver.c ****             break;
 218              		.loc 1 50 13 view .LVU55
 219 0036 EBE7     		b	.L11
 220              	.LVL16:
 221              	.L13:
  53:App/SmartDevice/ModuleDriver/led_driver.c ****             HAL_GPIO_WritePin(GREEN_GPIO_Port, GREEN_Pin, !iStatus);
 222              		.loc 1 53 13 is_stmt 1 view .LVU56
 223 0038 B1FA81F2 		clz	r2, r1
 224 003c 5209     		lsrs	r2, r2, #5
 225 003e 4FF40071 		mov	r1, #512
 226              	.LVL17:
  53:App/SmartDevice/ModuleDriver/led_driver.c ****             HAL_GPIO_WritePin(GREEN_GPIO_Port, GREEN_Pin, !iStatus);
 227              		.loc 1 53 13 is_stmt 0 view .LVU57
 228 0042 0248     		ldr	r0, .L18
 229              	.LVL18:
  53:App/SmartDevice/ModuleDriver/led_driver.c ****             HAL_GPIO_WritePin(GREEN_GPIO_Port, GREEN_Pin, !iStatus);
 230              		.loc 1 53 13 view .LVU58
 231 0044 FFF7FEFF 		bl	HAL_GPIO_WritePin
 232              	.LVL19:
  54:App/SmartDevice/ModuleDriver/led_driver.c ****             break;
 233              		.loc 1 54 13 is_stmt 1 view .LVU59
  60:App/SmartDevice/ModuleDriver/led_driver.c ****     return 0;
 234              		.loc 1 60 12 is_stmt 0 view .LVU60
 235 0048 0024     		movs	r4, #0
  54:App/SmartDevice/ModuleDriver/led_driver.c ****             break;
 236              		.loc 1 54 13 view .LVU61
 237 004a E1E7     		b	.L11
 238              	.L19:
 239              		.align	2
 240              	.L18:
 241 004c 001C0140 		.word	1073814528
 242              		.cfi_endproc
 243              	.LFE69:
 245              		.text
 246              	.Letext0:
 247              		.file 2 "c:\\env\\embeddedtoolchain\\xpack-arm-none-eabi-gcc-10.3.1-2.3\\arm-none-eabi\\include\\m
 248              		.file 3 "c:\\env\\embeddedtoolchain\\xpack-arm-none-eabi-gcc-10.3.1-2.3\\arm-none-eabi\\include\\s
 249              		.file 4 "Drivers/CMSIS/Device/ST/STM32F1xx/Include/stm32f103xe.h"
 250              		.file 5 "Drivers/STM32F1xx_HAL_Driver/Inc/stm32f1xx_hal_gpio.h"
 251              		.file 6 "App/SmartDevice/SubSystems/system_type.h"
ARM GAS  C:\Users\ADMINI~1\AppData\Local\Temp\ccU3XwtT.s 			page 7

