ARM GAS  C:\Users\ADMINI~1\AppData\Local\Temp\ccNj7ELt.s 			page 1


   1              		.cpu cortex-m3
   2              		.arch armv7-m
   3              		.fpu softvfp
   4              		.eabi_attribute 20, 1
   5              		.eabi_attribute 21, 1
   6              		.eabi_attribute 23, 3
   7              		.eabi_attribute 24, 1
   8              		.eabi_attribute 25, 1
   9              		.eabi_attribute 26, 1
  10              		.eabi_attribute 30, 1
  11              		.eabi_attribute 34, 1
  12              		.eabi_attribute 18, 4
  13              		.file	"uart_driver.c"
  14              		.text
  15              	.Ltext0:
  16              		.cfi_sections	.debug_frame
  17              		.section	.text.EnablePrintfIRQ,"ax",%progbits
  18              		.align	1
  19              		.global	EnablePrintfIRQ
  20              		.syntax unified
  21              		.thumb
  22              		.thumb_func
  24              	EnablePrintfIRQ:
  25              	.LFB68:
  26              		.file 1 "App/SmartDevice/ModuleDriver/uart_driver.c"
   1:App/SmartDevice/ModuleDriver/uart_driver.c **** #include "uart_Driver.h"
   2:App/SmartDevice/ModuleDriver/uart_driver.c **** 
   3:App/SmartDevice/ModuleDriver/uart_driver.c **** static char temp[INPUT_BUF_LEN] = {0};
   4:App/SmartDevice/ModuleDriver/uart_driver.c **** static int count = 0;
   5:App/SmartDevice/ModuleDriver/uart_driver.c **** 
   6:App/SmartDevice/ModuleDriver/uart_driver.c **** void EnablePrintfIRQ()
   7:App/SmartDevice/ModuleDriver/uart_driver.c **** {
  27              		.loc 1 7 1 view -0
  28              		.cfi_startproc
  29              		@ args = 0, pretend = 0, frame = 0
  30              		@ frame_needed = 0, uses_anonymous_args = 0
  31 0000 08B5     		push	{r3, lr}
  32              	.LCFI0:
  33              		.cfi_def_cfa_offset 8
  34              		.cfi_offset 3, -8
  35              		.cfi_offset 14, -4
   8:App/SmartDevice/ModuleDriver/uart_driver.c ****     HAL_NVIC_SetPriority(USART1_IRQn, 0, 2);
  36              		.loc 1 8 5 view .LVU1
  37 0002 0222     		movs	r2, #2
  38 0004 0021     		movs	r1, #0
  39 0006 2520     		movs	r0, #37
  40 0008 FFF7FEFF 		bl	HAL_NVIC_SetPriority
  41              	.LVL0:
   9:App/SmartDevice/ModuleDriver/uart_driver.c ****     HAL_NVIC_EnableIRQ(USART1_IRQn);
  42              		.loc 1 9 5 view .LVU2
  43 000c 2520     		movs	r0, #37
  44 000e FFF7FEFF 		bl	HAL_NVIC_EnableIRQ
  45              	.LVL1:
  10:App/SmartDevice/ModuleDriver/uart_driver.c **** 
  11:App/SmartDevice/ModuleDriver/uart_driver.c ****     __HAL_UART_ENABLE_IT(&huart1, UART_IT_RXNE);
  46              		.loc 1 11 5 view .LVU3
  47 0012 034B     		ldr	r3, .L3
ARM GAS  C:\Users\ADMINI~1\AppData\Local\Temp\ccNj7ELt.s 			page 2


  48 0014 1A68     		ldr	r2, [r3]
  49 0016 D368     		ldr	r3, [r2, #12]
  50 0018 43F02003 		orr	r3, r3, #32
  51 001c D360     		str	r3, [r2, #12]
  12:App/SmartDevice/ModuleDriver/uart_driver.c **** }
  52              		.loc 1 12 1 is_stmt 0 view .LVU4
  53 001e 08BD     		pop	{r3, pc}
  54              	.L4:
  55              		.align	2
  56              	.L3:
  57 0020 00000000 		.word	huart1
  58              		.cfi_endproc
  59              	.LFE68:
  61              		.section	.text.DisablePrintfIRQ,"ax",%progbits
  62              		.align	1
  63              		.global	DisablePrintfIRQ
  64              		.syntax unified
  65              		.thumb
  66              		.thumb_func
  68              	DisablePrintfIRQ:
  69              	.LFB69:
  13:App/SmartDevice/ModuleDriver/uart_driver.c **** 
  14:App/SmartDevice/ModuleDriver/uart_driver.c **** void DisablePrintfIRQ()
  15:App/SmartDevice/ModuleDriver/uart_driver.c **** {
  70              		.loc 1 15 1 is_stmt 1 view -0
  71              		.cfi_startproc
  72              		@ args = 0, pretend = 0, frame = 0
  73              		@ frame_needed = 0, uses_anonymous_args = 0
  74 0000 08B5     		push	{r3, lr}
  75              	.LCFI1:
  76              		.cfi_def_cfa_offset 8
  77              		.cfi_offset 3, -8
  78              		.cfi_offset 14, -4
  16:App/SmartDevice/ModuleDriver/uart_driver.c ****     __HAL_UART_DISABLE_IT(&huart1, UART_IT_TC | UART_IT_RXNE);
  79              		.loc 1 16 5 view .LVU6
  80 0002 054B     		ldr	r3, .L7
  81 0004 1A68     		ldr	r2, [r3]
  82 0006 D368     		ldr	r3, [r2, #12]
  83 0008 23F06003 		bic	r3, r3, #96
  84 000c D360     		str	r3, [r2, #12]
  17:App/SmartDevice/ModuleDriver/uart_driver.c **** 
  18:App/SmartDevice/ModuleDriver/uart_driver.c ****     HAL_NVIC_DisableIRQ(USART1_IRQn);
  85              		.loc 1 18 5 view .LVU7
  86 000e 2520     		movs	r0, #37
  87 0010 FFF7FEFF 		bl	HAL_NVIC_DisableIRQ
  88              	.LVL2:
  19:App/SmartDevice/ModuleDriver/uart_driver.c **** }
  89              		.loc 1 19 1 is_stmt 0 view .LVU8
  90 0014 08BD     		pop	{r3, pc}
  91              	.L8:
  92 0016 00BF     		.align	2
  93              	.L7:
  94 0018 00000000 		.word	huart1
  95              		.cfi_endproc
  96              	.LFE69:
  98              		.section	.text._write,"ax",%progbits
  99              		.align	1
ARM GAS  C:\Users\ADMINI~1\AppData\Local\Temp\ccNj7ELt.s 			page 3


 100              		.global	_write
 101              		.syntax unified
 102              		.thumb
 103              		.thumb_func
 105              	_write:
 106              	.LVL3:
 107              	.LFB70:
  20:App/SmartDevice/ModuleDriver/uart_driver.c **** 
  21:App/SmartDevice/ModuleDriver/uart_driver.c **** uint16_t _write(int fd, const void *ptr, uint16_t len)
  22:App/SmartDevice/ModuleDriver/uart_driver.c **** {
 108              		.loc 1 22 1 is_stmt 1 view -0
 109              		.cfi_startproc
 110              		@ args = 0, pretend = 0, frame = 0
 111              		@ frame_needed = 0, uses_anonymous_args = 0
 112              		.loc 1 22 1 is_stmt 0 view .LVU10
 113 0000 10B5     		push	{r4, lr}
 114              	.LCFI2:
 115              		.cfi_def_cfa_offset 8
 116              		.cfi_offset 4, -8
 117              		.cfi_offset 14, -4
 118 0002 1446     		mov	r4, r2
  23:App/SmartDevice/ModuleDriver/uart_driver.c ****     (void)fd;
 119              		.loc 1 23 5 is_stmt 1 view .LVU11
  24:App/SmartDevice/ModuleDriver/uart_driver.c ****     (void)ptr;
 120              		.loc 1 24 5 view .LVU12
  25:App/SmartDevice/ModuleDriver/uart_driver.c **** 
  26:App/SmartDevice/ModuleDriver/uart_driver.c ****     HAL_UART_Transmit(&huart1, (uint8_t *)ptr, len, HAL_MAX_DELAY); // 阻塞式无限等待
 121              		.loc 1 26 5 view .LVU13
 122 0004 4FF0FF33 		mov	r3, #-1
 123 0008 0248     		ldr	r0, .L11
 124              	.LVL4:
 125              		.loc 1 26 5 is_stmt 0 view .LVU14
 126 000a FFF7FEFF 		bl	HAL_UART_Transmit
 127              	.LVL5:
  27:App/SmartDevice/ModuleDriver/uart_driver.c **** 
  28:App/SmartDevice/ModuleDriver/uart_driver.c ****     return (uint16_t)len;
 128              		.loc 1 28 5 is_stmt 1 view .LVU15
  29:App/SmartDevice/ModuleDriver/uart_driver.c **** }
 129              		.loc 1 29 1 is_stmt 0 view .LVU16
 130 000e 2046     		mov	r0, r4
 131 0010 10BD     		pop	{r4, pc}
 132              	.L12:
 133 0012 00BF     		.align	2
 134              	.L11:
 135 0014 00000000 		.word	huart1
 136              		.cfi_endproc
 137              	.LFE70:
 139              		.section	.text.HAL_UART_Callback,"ax",%progbits
 140              		.align	1
 141              		.global	HAL_UART_Callback
 142              		.syntax unified
 143              		.thumb
 144              		.thumb_func
 146              	HAL_UART_Callback:
 147              	.LVL6:
 148              	.LFB71:
  30:App/SmartDevice/ModuleDriver/uart_driver.c **** 
ARM GAS  C:\Users\ADMINI~1\AppData\Local\Temp\ccNj7ELt.s 			page 4


  31:App/SmartDevice/ModuleDriver/uart_driver.c **** 
  32:App/SmartDevice/ModuleDriver/uart_driver.c **** void HAL_UART_Callback(UART_HandleTypeDef *huart)
  33:App/SmartDevice/ModuleDriver/uart_driver.c **** {
 149              		.loc 1 33 1 is_stmt 1 view -0
 150              		.cfi_startproc
 151              		@ args = 0, pretend = 0, frame = 128
 152              		@ frame_needed = 0, uses_anonymous_args = 0
  34:App/SmartDevice/ModuleDriver/uart_driver.c ****     InputEvent inputEvent;
 153              		.loc 1 34 5 view .LVU18
  35:App/SmartDevice/ModuleDriver/uart_driver.c **** 
  36:App/SmartDevice/ModuleDriver/uart_driver.c ****     if (huart->Instance == USART1)
 154              		.loc 1 36 5 view .LVU19
 155              		.loc 1 36 14 is_stmt 0 view .LVU20
 156 0000 0268     		ldr	r2, [r0]
 157              		.loc 1 36 8 view .LVU21
 158 0002 104B     		ldr	r3, .L20
 159 0004 9A42     		cmp	r2, r3
 160 0006 00D0     		beq	.L19
 161 0008 7047     		bx	lr
 162              	.L19:
  33:App/SmartDevice/ModuleDriver/uart_driver.c ****     InputEvent inputEvent;
 163              		.loc 1 33 1 view .LVU22
 164 000a 30B5     		push	{r4, r5, lr}
 165              	.LCFI3:
 166              		.cfi_def_cfa_offset 12
 167              		.cfi_offset 4, -12
 168              		.cfi_offset 5, -8
 169              		.cfi_offset 14, -4
 170 000c BDB0     		sub	sp, sp, #244
 171              	.LCFI4:
 172              		.cfi_def_cfa_offset 256
  37:App/SmartDevice/ModuleDriver/uart_driver.c ****     {
  38:App/SmartDevice/ModuleDriver/uart_driver.c ****         inputEvent.time = KAL_GetTime();
 173              		.loc 1 38 9 is_stmt 1 view .LVU23
 174              		.loc 1 38 27 is_stmt 0 view .LVU24
 175 000e FFF7FEFF 		bl	KAL_GetTime
 176              	.LVL7:
 177              		.loc 1 38 25 view .LVU25
 178 0012 1D90     		str	r0, [sp, #116]
  39:App/SmartDevice/ModuleDriver/uart_driver.c ****         inputEvent.eType = INPUT_EVENT_TYPE_STDIO;
 179              		.loc 1 39 9 is_stmt 1 view .LVU26
 180              		.loc 1 39 26 is_stmt 0 view .LVU27
 181 0014 0323     		movs	r3, #3
 182 0016 8DF87830 		strb	r3, [sp, #120]
  40:App/SmartDevice/ModuleDriver/uart_driver.c ****         memcpy(inputEvent.str, temp, count);
 183              		.loc 1 40 9 is_stmt 1 view .LVU28
 184 001a 1DAC     		add	r4, sp, #116
 185 001c 0A4D     		ldr	r5, .L20+4
 186 001e 2A68     		ldr	r2, [r5]
 187 0020 0A49     		ldr	r1, .L20+8
 188 0022 23A8     		add	r0, sp, #140
 189 0024 FFF7FEFF 		bl	memcpy
 190              	.LVL8:
  41:App/SmartDevice/ModuleDriver/uart_driver.c ****         PutEventIntoBuffer(inputEvent);
 191              		.loc 1 41 9 view .LVU29
 192 0028 6C22     		movs	r2, #108
 193 002a 21A9     		add	r1, sp, #132
ARM GAS  C:\Users\ADMINI~1\AppData\Local\Temp\ccNj7ELt.s 			page 5


 194 002c 6846     		mov	r0, sp
 195 002e FFF7FEFF 		bl	memcpy
 196              	.LVL9:
 197 0032 94E80F00 		ldm	r4, {r0, r1, r2, r3}
 198 0036 FFF7FEFF 		bl	PutEventIntoBuffer
 199              	.LVL10:
  42:App/SmartDevice/ModuleDriver/uart_driver.c **** 
  43:App/SmartDevice/ModuleDriver/uart_driver.c ****         count = 0;
 200              		.loc 1 43 9 view .LVU30
 201              		.loc 1 43 15 is_stmt 0 view .LVU31
 202 003a 0023     		movs	r3, #0
 203 003c 2B60     		str	r3, [r5]
  44:App/SmartDevice/ModuleDriver/uart_driver.c ****     }
  45:App/SmartDevice/ModuleDriver/uart_driver.c **** }
 204              		.loc 1 45 1 view .LVU32
 205 003e 3DB0     		add	sp, sp, #244
 206              	.LCFI5:
 207              		.cfi_def_cfa_offset 12
 208              		@ sp needed
 209 0040 30BD     		pop	{r4, r5, pc}
 210              	.L21:
 211 0042 00BF     		.align	2
 212              	.L20:
 213 0044 00380140 		.word	1073821696
 214 0048 00000000 		.word	.LANCHOR0
 215 004c 00000000 		.word	.LANCHOR1
 216              		.cfi_endproc
 217              	.LFE71:
 219              		.section	.text.USART1_IRQHandler,"ax",%progbits
 220              		.align	1
 221              		.global	USART1_IRQHandler
 222              		.syntax unified
 223              		.thumb
 224              		.thumb_func
 226              	USART1_IRQHandler:
 227              	.LFB72:
  46:App/SmartDevice/ModuleDriver/uart_driver.c **** 
  47:App/SmartDevice/ModuleDriver/uart_driver.c **** void USART1_IRQHandler(void)
  48:App/SmartDevice/ModuleDriver/uart_driver.c **** {
 228              		.loc 1 48 1 is_stmt 1 view -0
 229              		.cfi_startproc
 230              		@ args = 0, pretend = 0, frame = 0
 231              		@ frame_needed = 0, uses_anonymous_args = 0
 232 0000 08B5     		push	{r3, lr}
 233              	.LCFI6:
 234              		.cfi_def_cfa_offset 8
 235              		.cfi_offset 3, -8
 236              		.cfi_offset 14, -4
  49:App/SmartDevice/ModuleDriver/uart_driver.c ****     char c = 0;
 237              		.loc 1 49 5 view .LVU34
 238              	.LVL11:
  50:App/SmartDevice/ModuleDriver/uart_driver.c **** 
  51:App/SmartDevice/ModuleDriver/uart_driver.c ****     if ((USART1->SR & (1 << 5)) != 0)
 239              		.loc 1 51 5 view .LVU35
 240              		.loc 1 51 16 is_stmt 0 view .LVU36
 241 0002 0F4B     		ldr	r3, .L26
 242 0004 1B68     		ldr	r3, [r3]
ARM GAS  C:\Users\ADMINI~1\AppData\Local\Temp\ccNj7ELt.s 			page 6


 243              		.loc 1 51 8 view .LVU37
 244 0006 13F0200F 		tst	r3, #32
 245 000a 0AD0     		beq	.L23
  52:App/SmartDevice/ModuleDriver/uart_driver.c ****     {
  53:App/SmartDevice/ModuleDriver/uart_driver.c ****         c = USART1->DR;
 246              		.loc 1 53 9 is_stmt 1 view .LVU38
 247              		.loc 1 53 19 is_stmt 0 view .LVU39
 248 000c 0C4B     		ldr	r3, .L26
 249 000e 5B68     		ldr	r3, [r3, #4]
 250              		.loc 1 53 11 view .LVU40
 251 0010 DBB2     		uxtb	r3, r3
 252              	.LVL12:
  54:App/SmartDevice/ModuleDriver/uart_driver.c **** 
  55:App/SmartDevice/ModuleDriver/uart_driver.c ****         if (c != '\n')
 253              		.loc 1 55 9 is_stmt 1 view .LVU41
 254              		.loc 1 55 12 is_stmt 0 view .LVU42
 255 0012 0A2B     		cmp	r3, #10
 256 0014 09D0     		beq	.L24
  56:App/SmartDevice/ModuleDriver/uart_driver.c ****         {
  57:App/SmartDevice/ModuleDriver/uart_driver.c ****             temp[count++] = c;
 257              		.loc 1 57 13 is_stmt 1 view .LVU43
 258              		.loc 1 57 23 is_stmt 0 view .LVU44
 259 0016 0B49     		ldr	r1, .L26+4
 260 0018 0A68     		ldr	r2, [r1]
 261 001a 501C     		adds	r0, r2, #1
 262 001c 0860     		str	r0, [r1]
 263              		.loc 1 57 27 view .LVU45
 264 001e 0A49     		ldr	r1, .L26+8
 265 0020 8B54     		strb	r3, [r1, r2]
 266              	.LVL13:
 267              	.L23:
  58:App/SmartDevice/ModuleDriver/uart_driver.c ****         }
  59:App/SmartDevice/ModuleDriver/uart_driver.c ****         else
  60:App/SmartDevice/ModuleDriver/uart_driver.c ****         {
  61:App/SmartDevice/ModuleDriver/uart_driver.c ****             temp[count-1] = '\0';
  62:App/SmartDevice/ModuleDriver/uart_driver.c ****             HAL_UART_Callback(&huart1);
  63:App/SmartDevice/ModuleDriver/uart_driver.c ****         }
  64:App/SmartDevice/ModuleDriver/uart_driver.c ****     }
  65:App/SmartDevice/ModuleDriver/uart_driver.c **** 
  66:App/SmartDevice/ModuleDriver/uart_driver.c ****     HAL_UART_IRQHandler(&huart1);
 268              		.loc 1 66 5 is_stmt 1 view .LVU46
 269 0022 0A48     		ldr	r0, .L26+12
 270 0024 FFF7FEFF 		bl	HAL_UART_IRQHandler
 271              	.LVL14:
  67:App/SmartDevice/ModuleDriver/uart_driver.c **** }
 272              		.loc 1 67 1 is_stmt 0 view .LVU47
 273 0028 08BD     		pop	{r3, pc}
 274              	.LVL15:
 275              	.L24:
  61:App/SmartDevice/ModuleDriver/uart_driver.c ****             HAL_UART_Callback(&huart1);
 276              		.loc 1 61 13 is_stmt 1 view .LVU48
  61:App/SmartDevice/ModuleDriver/uart_driver.c ****             HAL_UART_Callback(&huart1);
 277              		.loc 1 61 23 is_stmt 0 view .LVU49
 278 002a 064B     		ldr	r3, .L26+4
 279              	.LVL16:
  61:App/SmartDevice/ModuleDriver/uart_driver.c ****             HAL_UART_Callback(&huart1);
 280              		.loc 1 61 23 view .LVU50
ARM GAS  C:\Users\ADMINI~1\AppData\Local\Temp\ccNj7ELt.s 			page 7


 281 002c 1B68     		ldr	r3, [r3]
 282 002e 013B     		subs	r3, r3, #1
  61:App/SmartDevice/ModuleDriver/uart_driver.c ****             HAL_UART_Callback(&huart1);
 283              		.loc 1 61 27 view .LVU51
 284 0030 054A     		ldr	r2, .L26+8
 285 0032 0021     		movs	r1, #0
 286 0034 D154     		strb	r1, [r2, r3]
  62:App/SmartDevice/ModuleDriver/uart_driver.c ****         }
 287              		.loc 1 62 13 is_stmt 1 view .LVU52
 288 0036 0548     		ldr	r0, .L26+12
 289 0038 FFF7FEFF 		bl	HAL_UART_Callback
 290              	.LVL17:
 291 003c F1E7     		b	.L23
 292              	.L27:
 293 003e 00BF     		.align	2
 294              	.L26:
 295 0040 00380140 		.word	1073821696
 296 0044 00000000 		.word	.LANCHOR0
 297 0048 00000000 		.word	.LANCHOR1
 298 004c 00000000 		.word	huart1
 299              		.cfi_endproc
 300              	.LFE72:
 302              		.section	.text.getDataFromBuffer,"ax",%progbits
 303              		.align	1
 304              		.global	getDataFromBuffer
 305              		.syntax unified
 306              		.thumb
 307              		.thumb_func
 309              	getDataFromBuffer:
 310              	.LVL18:
 311              	.LFB73:
  68:App/SmartDevice/ModuleDriver/uart_driver.c **** 
  69:App/SmartDevice/ModuleDriver/uart_driver.c **** int getDataFromBuffer(RingBuffer *g_RingBuffer, char *c)
  70:App/SmartDevice/ModuleDriver/uart_driver.c **** {
 312              		.loc 1 70 1 view -0
 313              		.cfi_startproc
 314              		@ args = 0, pretend = 0, frame = 0
 315              		@ frame_needed = 0, uses_anonymous_args = 0
 316              		@ link register save eliminated.
  71:App/SmartDevice/ModuleDriver/uart_driver.c ****     if (g_RingBuffer->pr == g_RingBuffer->pw)
 317              		.loc 1 71 5 view .LVU54
 318              		.loc 1 71 21 is_stmt 0 view .LVU55
 319 0000 836E     		ldr	r3, [r0, #104]
 320              		.loc 1 71 41 view .LVU56
 321 0002 426E     		ldr	r2, [r0, #100]
 322              		.loc 1 71 8 view .LVU57
 323 0004 9342     		cmp	r3, r2
 324 0006 0DD0     		beq	.L30
  72:App/SmartDevice/ModuleDriver/uart_driver.c ****     {
  73:App/SmartDevice/ModuleDriver/uart_driver.c ****         return -1;
  74:App/SmartDevice/ModuleDriver/uart_driver.c ****     }
  75:App/SmartDevice/ModuleDriver/uart_driver.c **** 
  76:App/SmartDevice/ModuleDriver/uart_driver.c ****     *c = g_RingBuffer->ringBuffer[g_RingBuffer->pr];
 325              		.loc 1 76 5 is_stmt 1 view .LVU58
 326              		.loc 1 76 34 is_stmt 0 view .LVU59
 327 0008 C35C     		ldrb	r3, [r0, r3]	@ zero_extendqisi2
 328              		.loc 1 76 8 view .LVU60
ARM GAS  C:\Users\ADMINI~1\AppData\Local\Temp\ccNj7ELt.s 			page 8


 329 000a 0B70     		strb	r3, [r1]
  77:App/SmartDevice/ModuleDriver/uart_driver.c ****     g_RingBuffer->pr = (g_RingBuffer->pr + 1) % RING_BUFFER_SIZE;
 330              		.loc 1 77 5 is_stmt 1 view .LVU61
 331              		.loc 1 77 37 is_stmt 0 view .LVU62
 332 000c 826E     		ldr	r2, [r0, #104]
 333              		.loc 1 77 42 view .LVU63
 334 000e 0132     		adds	r2, r2, #1
 335              		.loc 1 77 47 view .LVU64
 336 0010 064B     		ldr	r3, .L31
 337 0012 A3FB0213 		umull	r1, r3, r3, r2
 338              	.LVL19:
 339              		.loc 1 77 47 view .LVU65
 340 0016 5B09     		lsrs	r3, r3, #5
 341 0018 6421     		movs	r1, #100
 342 001a 01FB1323 		mls	r3, r1, r3, r2
 343              		.loc 1 77 22 view .LVU66
 344 001e 8366     		str	r3, [r0, #104]
  78:App/SmartDevice/ModuleDriver/uart_driver.c **** 
  79:App/SmartDevice/ModuleDriver/uart_driver.c ****     return 0;
 345              		.loc 1 79 5 is_stmt 1 view .LVU67
 346              		.loc 1 79 12 is_stmt 0 view .LVU68
 347 0020 0020     		movs	r0, #0
 348              	.LVL20:
 349              		.loc 1 79 12 view .LVU69
 350 0022 7047     		bx	lr
 351              	.LVL21:
 352              	.L30:
  73:App/SmartDevice/ModuleDriver/uart_driver.c ****     }
 353              		.loc 1 73 16 view .LVU70
 354 0024 4FF0FF30 		mov	r0, #-1
 355              	.LVL22:
  80:App/SmartDevice/ModuleDriver/uart_driver.c **** }
 356              		.loc 1 80 1 view .LVU71
 357 0028 7047     		bx	lr
 358              	.L32:
 359 002a 00BF     		.align	2
 360              	.L31:
 361 002c 1F85EB51 		.word	1374389535
 362              		.cfi_endproc
 363              	.LFE73:
 365              		.section	.text.putDataIntoBuffer,"ax",%progbits
 366              		.align	1
 367              		.global	putDataIntoBuffer
 368              		.syntax unified
 369              		.thumb
 370              		.thumb_func
 372              	putDataIntoBuffer:
 373              	.LVL23:
 374              	.LFB74:
  81:App/SmartDevice/ModuleDriver/uart_driver.c **** 
  82:App/SmartDevice/ModuleDriver/uart_driver.c **** int putDataIntoBuffer(RingBuffer *g_RingBuffer, char c)
  83:App/SmartDevice/ModuleDriver/uart_driver.c **** {
 375              		.loc 1 83 1 is_stmt 1 view -0
 376              		.cfi_startproc
 377              		@ args = 0, pretend = 0, frame = 0
 378              		@ frame_needed = 0, uses_anonymous_args = 0
 379              		@ link register save eliminated.
ARM GAS  C:\Users\ADMINI~1\AppData\Local\Temp\ccNj7ELt.s 			page 9


 380              		.loc 1 83 1 is_stmt 0 view .LVU73
 381 0000 10B4     		push	{r4}
 382              	.LCFI7:
 383              		.cfi_def_cfa_offset 4
 384              		.cfi_offset 4, -4
  84:App/SmartDevice/ModuleDriver/uart_driver.c ****     if ((g_RingBuffer->pw + 1) % RING_BUFFER_SIZE == g_RingBuffer->pr)
 385              		.loc 1 84 5 is_stmt 1 view .LVU74
 386              		.loc 1 84 22 is_stmt 0 view .LVU75
 387 0002 446E     		ldr	r4, [r0, #100]
 388              		.loc 1 84 27 view .LVU76
 389 0004 621C     		adds	r2, r4, #1
 390              		.loc 1 84 32 view .LVU77
 391 0006 094B     		ldr	r3, .L37
 392 0008 A3FB02C3 		umull	ip, r3, r3, r2
 393 000c 5B09     		lsrs	r3, r3, #5
 394 000e 4FF0640C 		mov	ip, #100
 395 0012 0CFB1323 		mls	r3, ip, r3, r2
 396              		.loc 1 84 66 view .LVU78
 397 0016 826E     		ldr	r2, [r0, #104]
 398              		.loc 1 84 8 view .LVU79
 399 0018 9342     		cmp	r3, r2
 400 001a 04D0     		beq	.L35
  85:App/SmartDevice/ModuleDriver/uart_driver.c ****     {
  86:App/SmartDevice/ModuleDriver/uart_driver.c ****         return -1;
  87:App/SmartDevice/ModuleDriver/uart_driver.c ****     }
  88:App/SmartDevice/ModuleDriver/uart_driver.c **** 
  89:App/SmartDevice/ModuleDriver/uart_driver.c ****     g_RingBuffer->ringBuffer[g_RingBuffer->pw] = c;
 401              		.loc 1 89 5 is_stmt 1 view .LVU80
 402              		.loc 1 89 48 is_stmt 0 view .LVU81
 403 001c 0155     		strb	r1, [r0, r4]
  90:App/SmartDevice/ModuleDriver/uart_driver.c ****     g_RingBuffer->pw = (g_RingBuffer->pw + 1) % RING_BUFFER_SIZE;
 404              		.loc 1 90 5 is_stmt 1 view .LVU82
 405              		.loc 1 90 22 is_stmt 0 view .LVU83
 406 001e 4366     		str	r3, [r0, #100]
  91:App/SmartDevice/ModuleDriver/uart_driver.c **** 
  92:App/SmartDevice/ModuleDriver/uart_driver.c ****     return 0;
 407              		.loc 1 92 5 is_stmt 1 view .LVU84
 408              		.loc 1 92 12 is_stmt 0 view .LVU85
 409 0020 0020     		movs	r0, #0
 410              	.LVL24:
 411              	.L33:
  93:App/SmartDevice/ModuleDriver/uart_driver.c **** }...
 412              		.loc 1 93 1 view .LVU86
 413 0022 10BC     		pop	{r4}
 414              	.LCFI8:
 415              		.cfi_remember_state
 416              		.cfi_restore 4
 417              		.cfi_def_cfa_offset 0
 418 0024 7047     		bx	lr
 419              	.LVL25:
 420              	.L35:
 421              	.LCFI9:
 422              		.cfi_restore_state
  86:App/SmartDevice/ModuleDriver/uart_driver.c ****         return -1;
 423              		.loc 1 86 16 view .LVU87
 424 0026 4FF0FF30 		mov	r0, #-1
 425              	.LVL26:
ARM GAS  C:\Users\ADMINI~1\AppData\Local\Temp\ccNj7ELt.s 			page 10


  86:App/SmartDevice/ModuleDriver/uart_driver.c ****         return -1;
 426              		.loc 1 86 16 view .LVU88
 427 002a FAE7     		b	.L33
 428              	.L38:
 429              		.align	2
 430              	.L37:
 431 002c 1F85EB51 		.word	1374389535
 432              		.cfi_endproc
 433              	.LFE74:
 435              		.section	.bss.count,"aw",%nobits
 436              		.align	2
 437              		.set	.LANCHOR0,. + 0
 440              	count:
 441 0000 00000000 		.space	4
 442              		.section	.bss.temp,"aw",%nobits
 443              		.align	2
 444              		.set	.LANCHOR1,. + 0
 447              	temp:
 448 0000 00000000 		.space	100
 448      00000000 
 448      00000000 
 448      00000000 
 448      00000000 
 449              		.text
 450              	.Letext0:
 451              		.file 2 "c:\\env\\embeddedtoolchain\\xpack-arm-none-eabi-gcc-10.3.1-2.3\\arm-none-eabi\\include\\m
 452              		.file 3 "c:\\env\\embeddedtoolchain\\xpack-arm-none-eabi-gcc-10.3.1-2.3\\arm-none-eabi\\include\\s
 453              		.file 4 "Drivers/CMSIS/Device/ST/STM32F1xx/Include/stm32f103xe.h"
 454              		.file 5 "Drivers/STM32F1xx_HAL_Driver/Inc/stm32f1xx_hal_def.h"
 455              		.file 6 "Drivers/STM32F1xx_HAL_Driver/Inc/stm32f1xx_hal_dma.h"
 456              		.file 7 "Drivers/STM32F1xx_HAL_Driver/Inc/stm32f1xx_hal_uart.h"
 457              		.file 8 "App/SmartDevice/SubSystems/system_type.h"
 458              		.file 9 "App/SmartDevice/ModuleDriver/uart_Driver.h"
 459              		.file 10 "App/SmartDevice/KAL/general_kal.h"
 460              		.file 11 "App/SmartDevice/ModuleDriver/ring_Buffer.h"
 461              		.file 12 "Drivers/STM32F1xx_HAL_Driver/Inc/stm32f1xx_hal_cortex.h"
 462              		.file 13 "Core/Inc/usart.h"
 463              		.file 14 "<built-in>"
ARM GAS  C:\Users\ADMINI~1\AppData\Local\Temp\ccNj7ELt.s 			page 11

